Archive member included because of file (symbol)

c:/program files (x86)/atmel/atmel toolchain/avr8 gcc/native/3.4.2.1002/avr8-gnu-toolchain/bin/../lib/gcc/avr/4.7.2/../../../../avr/lib/avr6\libm.a(addsf3.o)
                              MarlinSerial.o (__subsf3)
c:/program files (x86)/atmel/atmel toolchain/avr8 gcc/native/3.4.2.1002/avr8-gnu-toolchain/bin/../lib/gcc/avr/4.7.2/../../../../avr/lib/avr6\libm.a(addsf3x.o)
                              c:/program files (x86)/atmel/atmel toolchain/avr8 gcc/native/3.4.2.1002/avr8-gnu-toolchain/bin/../lib/gcc/avr/4.7.2/../../../../avr/lib/avr6\libm.a(addsf3.o) (__addsf3x)
c:/program files (x86)/atmel/atmel toolchain/avr8 gcc/native/3.4.2.1002/avr8-gnu-toolchain/bin/../lib/gcc/avr/4.7.2/../../../../avr/lib/avr6\libm.a(atan2.o)
                              motion_control.o (atan2)
c:/program files (x86)/atmel/atmel toolchain/avr8 gcc/native/3.4.2.1002/avr8-gnu-toolchain/bin/../lib/gcc/avr/4.7.2/../../../../avr/lib/avr6\libm.a(atan.o)
                              c:/program files (x86)/atmel/atmel toolchain/avr8 gcc/native/3.4.2.1002/avr8-gnu-toolchain/bin/../lib/gcc/avr/4.7.2/../../../../avr/lib/avr6\libm.a(atan2.o) (atan)
c:/program files (x86)/atmel/atmel toolchain/avr8 gcc/native/3.4.2.1002/avr8-gnu-toolchain/bin/../lib/gcc/avr/4.7.2/../../../../avr/lib/avr6\libm.a(ceil.o)
                              planner.o (ceil)
c:/program files (x86)/atmel/atmel toolchain/avr8 gcc/native/3.4.2.1002/avr8-gnu-toolchain/bin/../lib/gcc/avr/4.7.2/../../../../avr/lib/avr6\libm.a(cmpsf2.o)
                              Marlin_main.o (__eqsf2)
c:/program files (x86)/atmel/atmel toolchain/avr8 gcc/native/3.4.2.1002/avr8-gnu-toolchain/bin/../lib/gcc/avr/4.7.2/../../../../avr/lib/avr6\libm.a(cos.o)
                              motion_control.o (cos)
c:/program files (x86)/atmel/atmel toolchain/avr8 gcc/native/3.4.2.1002/avr8-gnu-toolchain/bin/../lib/gcc/avr/4.7.2/../../../../avr/lib/avr6\libm.a(divsf3.o)
                              MarlinSerial.o (__divsf3)
c:/program files (x86)/atmel/atmel toolchain/avr8 gcc/native/3.4.2.1002/avr8-gnu-toolchain/bin/../lib/gcc/avr/4.7.2/../../../../avr/lib/avr6\libm.a(divsf3x.o)
                              c:/program files (x86)/atmel/atmel toolchain/avr8 gcc/native/3.4.2.1002/avr8-gnu-toolchain/bin/../lib/gcc/avr/4.7.2/../../../../avr/lib/avr6\libm.a(divsf3.o) (__divsf3x)
c:/program files (x86)/atmel/atmel toolchain/avr8 gcc/native/3.4.2.1002/avr8-gnu-toolchain/bin/../lib/gcc/avr/4.7.2/../../../../avr/lib/avr6\libm.a(fixsfsi.o)
                              MarlinSerial.o (__fixsfsi)
c:/program files (x86)/atmel/atmel toolchain/avr8 gcc/native/3.4.2.1002/avr8-gnu-toolchain/bin/../lib/gcc/avr/4.7.2/../../../../avr/lib/avr6\libm.a(fixunssfsi.o)
                              MarlinSerial.o (__fixunssfsi)
c:/program files (x86)/atmel/atmel toolchain/avr8 gcc/native/3.4.2.1002/avr8-gnu-toolchain/bin/../lib/gcc/avr/4.7.2/../../../../avr/lib/avr6\libm.a(floatsisf.o)
                              MarlinSerial.o (__floatunsisf)
c:/program files (x86)/atmel/atmel toolchain/avr8 gcc/native/3.4.2.1002/avr8-gnu-toolchain/bin/../lib/gcc/avr/4.7.2/../../../../avr/lib/avr6\libm.a(floor.o)
                              motion_control.o (floor)
c:/program files (x86)/atmel/atmel toolchain/avr8 gcc/native/3.4.2.1002/avr8-gnu-toolchain/bin/../lib/gcc/avr/4.7.2/../../../../avr/lib/avr6\libm.a(fp_cmp.o)
                              c:/program files (x86)/atmel/atmel toolchain/avr8 gcc/native/3.4.2.1002/avr8-gnu-toolchain/bin/../lib/gcc/avr/4.7.2/../../../../avr/lib/avr6\libm.a(cmpsf2.o) (__fp_cmp)
c:/program files (x86)/atmel/atmel toolchain/avr8 gcc/native/3.4.2.1002/avr8-gnu-toolchain/bin/../lib/gcc/avr/4.7.2/../../../../avr/lib/avr6\libm.a(fp_inf.o)
                              c:/program files (x86)/atmel/atmel toolchain/avr8 gcc/native/3.4.2.1002/avr8-gnu-toolchain/bin/../lib/gcc/avr/4.7.2/../../../../avr/lib/avr6\libm.a(addsf3x.o) (__fp_inf)
c:/program files (x86)/atmel/atmel toolchain/avr8 gcc/native/3.4.2.1002/avr8-gnu-toolchain/bin/../lib/gcc/avr/4.7.2/../../../../avr/lib/avr6\libm.a(fp_mintl.o)
                              c:/program files (x86)/atmel/atmel toolchain/avr8 gcc/native/3.4.2.1002/avr8-gnu-toolchain/bin/../lib/gcc/avr/4.7.2/../../../../avr/lib/avr6\libm.a(ceil.o) (__fp_mintl)
c:/program files (x86)/atmel/atmel toolchain/avr8 gcc/native/3.4.2.1002/avr8-gnu-toolchain/bin/../lib/gcc/avr/4.7.2/../../../../avr/lib/avr6\libm.a(fp_mpack.o)
                              c:/program files (x86)/atmel/atmel toolchain/avr8 gcc/native/3.4.2.1002/avr8-gnu-toolchain/bin/../lib/gcc/avr/4.7.2/../../../../avr/lib/avr6\libm.a(ceil.o) (__fp_mpack)
c:/program files (x86)/atmel/atmel toolchain/avr8 gcc/native/3.4.2.1002/avr8-gnu-toolchain/bin/../lib/gcc/avr/4.7.2/../../../../avr/lib/avr6\libm.a(fp_nan.o)
                              c:/program files (x86)/atmel/atmel toolchain/avr8 gcc/native/3.4.2.1002/avr8-gnu-toolchain/bin/../lib/gcc/avr/4.7.2/../../../../avr/lib/avr6\libm.a(addsf3x.o) (__fp_nan)
c:/program files (x86)/atmel/atmel toolchain/avr8 gcc/native/3.4.2.1002/avr8-gnu-toolchain/bin/../lib/gcc/avr/4.7.2/../../../../avr/lib/avr6\libm.a(fp_powser.o)
                              c:/program files (x86)/atmel/atmel toolchain/avr8 gcc/native/3.4.2.1002/avr8-gnu-toolchain/bin/../lib/gcc/avr/4.7.2/../../../../avr/lib/avr6\libm.a(atan.o) (__fp_powser)
c:/program files (x86)/atmel/atmel toolchain/avr8 gcc/native/3.4.2.1002/avr8-gnu-toolchain/bin/../lib/gcc/avr/4.7.2/../../../../avr/lib/avr6\libm.a(fp_pscA.o)
                              c:/program files (x86)/atmel/atmel toolchain/avr8 gcc/native/3.4.2.1002/avr8-gnu-toolchain/bin/../lib/gcc/avr/4.7.2/../../../../avr/lib/avr6\libm.a(addsf3x.o) (__fp_pscA)
c:/program files (x86)/atmel/atmel toolchain/avr8 gcc/native/3.4.2.1002/avr8-gnu-toolchain/bin/../lib/gcc/avr/4.7.2/../../../../avr/lib/avr6\libm.a(fp_pscB.o)
                              c:/program files (x86)/atmel/atmel toolchain/avr8 gcc/native/3.4.2.1002/avr8-gnu-toolchain/bin/../lib/gcc/avr/4.7.2/../../../../avr/lib/avr6\libm.a(addsf3x.o) (__fp_pscB)
c:/program files (x86)/atmel/atmel toolchain/avr8 gcc/native/3.4.2.1002/avr8-gnu-toolchain/bin/../lib/gcc/avr/4.7.2/../../../../avr/lib/avr6\libm.a(fp_rempio2.o)
                              c:/program files (x86)/atmel/atmel toolchain/avr8 gcc/native/3.4.2.1002/avr8-gnu-toolchain/bin/../lib/gcc/avr/4.7.2/../../../../avr/lib/avr6\libm.a(cos.o) (__fp_rempio2)
c:/program files (x86)/atmel/atmel toolchain/avr8 gcc/native/3.4.2.1002/avr8-gnu-toolchain/bin/../lib/gcc/avr/4.7.2/../../../../avr/lib/avr6\libm.a(fp_round.o)
                              c:/program files (x86)/atmel/atmel toolchain/avr8 gcc/native/3.4.2.1002/avr8-gnu-toolchain/bin/../lib/gcc/avr/4.7.2/../../../../avr/lib/avr6\libm.a(addsf3.o) (__fp_round)
c:/program files (x86)/atmel/atmel toolchain/avr8 gcc/native/3.4.2.1002/avr8-gnu-toolchain/bin/../lib/gcc/avr/4.7.2/../../../../avr/lib/avr6\libm.a(fp_sinus.o)
                              c:/program files (x86)/atmel/atmel toolchain/avr8 gcc/native/3.4.2.1002/avr8-gnu-toolchain/bin/../lib/gcc/avr/4.7.2/../../../../avr/lib/avr6\libm.a(cos.o) (__fp_sinus)
c:/program files (x86)/atmel/atmel toolchain/avr8 gcc/native/3.4.2.1002/avr8-gnu-toolchain/bin/../lib/gcc/avr/4.7.2/../../../../avr/lib/avr6\libm.a(fp_split3.o)
                              c:/program files (x86)/atmel/atmel toolchain/avr8 gcc/native/3.4.2.1002/avr8-gnu-toolchain/bin/../lib/gcc/avr/4.7.2/../../../../avr/lib/avr6\libm.a(addsf3x.o) (__fp_split3)
c:/program files (x86)/atmel/atmel toolchain/avr8 gcc/native/3.4.2.1002/avr8-gnu-toolchain/bin/../lib/gcc/avr/4.7.2/../../../../avr/lib/avr6\libm.a(fp_trunc.o)
                              c:/program files (x86)/atmel/atmel toolchain/avr8 gcc/native/3.4.2.1002/avr8-gnu-toolchain/bin/../lib/gcc/avr/4.7.2/../../../../avr/lib/avr6\libm.a(ceil.o) (__fp_trunc)
c:/program files (x86)/atmel/atmel toolchain/avr8 gcc/native/3.4.2.1002/avr8-gnu-toolchain/bin/../lib/gcc/avr/4.7.2/../../../../avr/lib/avr6\libm.a(fp_zero.o)
                              c:/program files (x86)/atmel/atmel toolchain/avr8 gcc/native/3.4.2.1002/avr8-gnu-toolchain/bin/../lib/gcc/avr/4.7.2/../../../../avr/lib/avr6\libm.a(addsf3x.o) (__fp_zero)
c:/program files (x86)/atmel/atmel toolchain/avr8 gcc/native/3.4.2.1002/avr8-gnu-toolchain/bin/../lib/gcc/avr/4.7.2/../../../../avr/lib/avr6\libm.a(gesf2.o)
                              Marlin_main.o (__gesf2)
c:/program files (x86)/atmel/atmel toolchain/avr8 gcc/native/3.4.2.1002/avr8-gnu-toolchain/bin/../lib/gcc/avr/4.7.2/../../../../avr/lib/avr6\libm.a(hypot.o)
                              Marlin_main.o (hypot)
c:/program files (x86)/atmel/atmel toolchain/avr8 gcc/native/3.4.2.1002/avr8-gnu-toolchain/bin/../lib/gcc/avr/4.7.2/../../../../avr/lib/avr6\libm.a(inverse.o)
                              c:/program files (x86)/atmel/atmel toolchain/avr8 gcc/native/3.4.2.1002/avr8-gnu-toolchain/bin/../lib/gcc/avr/4.7.2/../../../../avr/lib/avr6\libm.a(atan.o) (inverse)
c:/program files (x86)/atmel/atmel toolchain/avr8 gcc/native/3.4.2.1002/avr8-gnu-toolchain/bin/../lib/gcc/avr/4.7.2/../../../../avr/lib/avr6\libm.a(ldexp.o)
                              c:/program files (x86)/atmel/atmel toolchain/avr8 gcc/native/3.4.2.1002/avr8-gnu-toolchain/bin/../lib/gcc/avr/4.7.2/../../../../avr/lib/avr6\libm.a(hypot.o) (ldexp)
c:/program files (x86)/atmel/atmel toolchain/avr8 gcc/native/3.4.2.1002/avr8-gnu-toolchain/bin/../lib/gcc/avr/4.7.2/../../../../avr/lib/avr6\libm.a(lround.o)
                              planner.o (lround)
c:/program files (x86)/atmel/atmel toolchain/avr8 gcc/native/3.4.2.1002/avr8-gnu-toolchain/bin/../lib/gcc/avr/4.7.2/../../../../avr/lib/avr6\libm.a(mulsf3.o)
                              MarlinSerial.o (__mulsf3)
c:/program files (x86)/atmel/atmel toolchain/avr8 gcc/native/3.4.2.1002/avr8-gnu-toolchain/bin/../lib/gcc/avr/4.7.2/../../../../avr/lib/avr6\libm.a(mulsf3x.o)
                              c:/program files (x86)/atmel/atmel toolchain/avr8 gcc/native/3.4.2.1002/avr8-gnu-toolchain/bin/../lib/gcc/avr/4.7.2/../../../../avr/lib/avr6\libm.a(atan.o) (__mulsf3x)
c:/program files (x86)/atmel/atmel toolchain/avr8 gcc/native/3.4.2.1002/avr8-gnu-toolchain/bin/../lib/gcc/avr/4.7.2/../../../../avr/lib/avr6\libm.a(sin.o)
                              motion_control.o (sin)
c:/program files (x86)/atmel/atmel toolchain/avr8 gcc/native/3.4.2.1002/avr8-gnu-toolchain/bin/../lib/gcc/avr/4.7.2/../../../../avr/lib/avr6\libm.a(sqrt.o)
                              planner.o (sqrt)
c:/program files (x86)/atmel/atmel toolchain/avr8 gcc/native/3.4.2.1002/avr8-gnu-toolchain/bin/../lib/gcc/avr/4.7.2/../../../../avr/lib/avr6\libm.a(square.o)
                              planner.o (square)
c:/program files (x86)/atmel/atmel toolchain/avr8 gcc/native/3.4.2.1002/avr8-gnu-toolchain/bin/../lib/gcc/avr/4.7.2/../../../../avr/lib/avr6\libm.a(fp_norm2.o)
                              c:/program files (x86)/atmel/atmel toolchain/avr8 gcc/native/3.4.2.1002/avr8-gnu-toolchain/bin/../lib/gcc/avr/4.7.2/../../../../avr/lib/avr6\libm.a(sqrt.o) (__fp_norm2)
c:/program files (x86)/atmel/atmel toolchain/avr8 gcc/native/3.4.2.1002/avr8-gnu-toolchain/bin/../lib/gcc/avr/4.7.2/../../../../avr/lib/avr6\libm.a(fp_powsodd.o)
                              c:/program files (x86)/atmel/atmel toolchain/avr8 gcc/native/3.4.2.1002/avr8-gnu-toolchain/bin/../lib/gcc/avr/4.7.2/../../../../avr/lib/avr6\libm.a(fp_sinus.o) (__fp_powsodd)
C:\Users\Shady\Documents\Atmel Studio\arduinoCoreMega\libcore.a(malloc.c.o)
                              Marlin_main.o (__brkval)
C:\Users\Shady\Documents\Atmel Studio\arduinoCoreMega\libcore.a(wiring.c.o)
                              cardreader.o (millis)
C:\Users\Shady\Documents\Atmel Studio\arduinoCoreMega\libcore.a(wiring_analog.c.o)
                              Marlin_main.o (analogWrite)
C:\Users\Shady\Documents\Atmel Studio\arduinoCoreMega\libcore.a(wiring_digital.c.o)
                              LiquidCrystalRus.o (pinMode)
C:\Users\Shady\Documents\Atmel Studio\arduinoCoreMega\libcore.a(main.cpp.o)
                              c:/program files (x86)/atmel/atmel toolchain/avr8 gcc/native/3.4.2.1002/avr8-gnu-toolchain/bin/../lib/gcc/avr/4.7.2/../../../../avr/lib/avr6/crtm2560.o (main)
C:\Users\Shady\Documents\Atmel Studio\arduinoCoreMega\libcore.a(new.cpp.o)
                              libs/LCD.o (__cxa_pure_virtual)
C:\Users\Shady\Documents\Atmel Studio\arduinoCoreMega\libcore.a(Print.cpp.o)
                              libs/LCD.o (_ZN5Print5writeEPKhj)
C:\Users\Shady\Documents\Atmel Studio\arduinoCoreMega\libcore.a(Tone.cpp.o)
                              Marlin_main.o (_Z6noToneh)
C:\Users\Shady\Documents\Atmel Studio\arduinoCoreMega\libcore.a(WString.cpp.o)
                              MarlinSerial.o (_ZNK6StringixEj)
C:\Users\Shady\Documents\Atmel Studio\arduinoCoreMega\libcore.a(realloc.c.o)
                              C:\Users\Shady\Documents\Atmel Studio\arduinoCoreMega\libcore.a(WString.cpp.o) (realloc)
c:/program files (x86)/atmel/atmel toolchain/avr8 gcc/native/3.4.2.1002/avr8-gnu-toolchain/bin/../lib/gcc/avr/4.7.2/../../../../avr/lib/avr6\libm.a(unordsf2.o)
                              C:\Users\Shady\Documents\Atmel Studio\arduinoCoreMega\libcore.a(Print.cpp.o) (__unordsf2)
c:/program files (x86)/atmel/atmel toolchain/avr8 gcc/native/3.4.2.1002/avr8-gnu-toolchain/bin/../lib/gcc/avr/4.7.2/avr6\libgcc.a(_mulsi3.o)
                              temperature.o (__mulsi3)
c:/program files (x86)/atmel/atmel toolchain/avr8 gcc/native/3.4.2.1002/avr8-gnu-toolchain/bin/../lib/gcc/avr/4.7.2/avr6\libgcc.a(_divmodhi4.o)
                              ultralcd.o (__divmodhi4)
c:/program files (x86)/atmel/atmel toolchain/avr8 gcc/native/3.4.2.1002/avr8-gnu-toolchain/bin/../lib/gcc/avr/4.7.2/avr6\libgcc.a(_udivmodsi4.o)
                              libs/LiquidTWI2.o (__udivmodsi4)
c:/program files (x86)/atmel/atmel toolchain/avr8 gcc/native/3.4.2.1002/avr8-gnu-toolchain/bin/../lib/gcc/avr/4.7.2/avr6\libgcc.a(_divmodsi4.o)
                              MarlinSerial.o (__divmodsi4)
c:/program files (x86)/atmel/atmel toolchain/avr8 gcc/native/3.4.2.1002/avr8-gnu-toolchain/bin/../lib/gcc/avr/4.7.2/avr6\libgcc.a(_exit.o)
                              c:/program files (x86)/atmel/atmel toolchain/avr8 gcc/native/3.4.2.1002/avr8-gnu-toolchain/bin/../lib/gcc/avr/4.7.2/../../../../avr/lib/avr6/crtm2560.o (exit)
c:/program files (x86)/atmel/atmel toolchain/avr8 gcc/native/3.4.2.1002/avr8-gnu-toolchain/bin/../lib/gcc/avr/4.7.2/avr6\libgcc.a(_copy_data.o)
                              libs/LCD.o (__do_copy_data)
c:/program files (x86)/atmel/atmel toolchain/avr8 gcc/native/3.4.2.1002/avr8-gnu-toolchain/bin/../lib/gcc/avr/4.7.2/avr6\libgcc.a(_clear_bss.o)
                              libs/Wire.o (__do_clear_bss)
c:/program files (x86)/atmel/atmel toolchain/avr8 gcc/native/3.4.2.1002/avr8-gnu-toolchain/bin/../lib/gcc/avr/4.7.2/avr6\libgcc.a(_ctors.o)
                              libs/Wire.o (__do_global_ctors)
c:/program files (x86)/atmel/atmel toolchain/avr8 gcc/native/3.4.2.1002/avr8-gnu-toolchain/bin/../lib/gcc/avr/4.7.2/avr6\libgcc.a(_dtors.o)
                              Marlin_main.o (__do_global_dtors)
c:/program files (x86)/atmel/atmel toolchain/avr8 gcc/native/3.4.2.1002/avr8-gnu-toolchain/bin/../lib/gcc/avr/4.7.2/avr6\libgcc.a(_umulhisi3.o)
                              ultralcd.o (__umulhisi3)
c:/program files (x86)/atmel/atmel toolchain/avr8 gcc/native/3.4.2.1002/avr8-gnu-toolchain/bin/../lib/gcc/avr/4.7.2/avr6\libgcc.a(_muluhisi3.o)
                              libs/LiquidTWI2.o (__muluhisi3)
c:/program files (x86)/atmel/atmel toolchain/avr8 gcc/native/3.4.2.1002/avr8-gnu-toolchain/bin/../lib/gcc/avr/4.7.2/avr6\libgcc.a(_mulshisi3.o)
                              planner.o (__mulshisi3)
c:/program files (x86)/atmel/atmel toolchain/avr8 gcc/native/3.4.2.1002/avr8-gnu-toolchain/bin/../lib/gcc/avr/4.7.2/avr6\libgcc.a(_tablejump_elpm.o)
                              c:/program files (x86)/atmel/atmel toolchain/avr8 gcc/native/3.4.2.1002/avr8-gnu-toolchain/bin/../lib/gcc/avr/4.7.2/avr6\libgcc.a(_ctors.o) (__tablejump_elpm__)
c:/program files (x86)/atmel/atmel toolchain/avr8 gcc/native/3.4.2.1002/avr8-gnu-toolchain/bin/../lib/gcc/avr/4.7.2/avr6\libgcc.a(_udivmodhi4.o)
                              c:/program files (x86)/atmel/atmel toolchain/avr8 gcc/native/3.4.2.1002/avr8-gnu-toolchain/bin/../lib/gcc/avr/4.7.2/avr6\libgcc.a(_divmodhi4.o) (__udivmodhi4)
c:/program files (x86)/atmel/atmel toolchain/avr8 gcc/native/3.4.2.1002/avr8-gnu-toolchain/bin/../lib/gcc/avr/4.7.2/../../../../avr/lib/avr6\libc.a(strtod.o)
                              Marlin_main.o (strtod)
c:/program files (x86)/atmel/atmel toolchain/avr8 gcc/native/3.4.2.1002/avr8-gnu-toolchain/bin/../lib/gcc/avr/4.7.2/../../../../avr/lib/avr6\libc.a(strtol.o)
                              Marlin_main.o (strtol)
c:/program files (x86)/atmel/atmel toolchain/avr8 gcc/native/3.4.2.1002/avr8-gnu-toolchain/bin/../lib/gcc/avr/4.7.2/../../../../avr/lib/avr6\libc.a(atol.o)
                              C:\Users\Shady\Documents\Atmel Studio\arduinoCoreMega\libcore.a(WString.cpp.o) (atol)
c:/program files (x86)/atmel/atmel toolchain/avr8 gcc/native/3.4.2.1002/avr8-gnu-toolchain/bin/../lib/gcc/avr/4.7.2/../../../../avr/lib/avr6\libc.a(isspace.o)
                              C:\Users\Shady\Documents\Atmel Studio\arduinoCoreMega\libcore.a(WString.cpp.o) (isspace)
c:/program files (x86)/atmel/atmel toolchain/avr8 gcc/native/3.4.2.1002/avr8-gnu-toolchain/bin/../lib/gcc/avr/4.7.2/../../../../avr/lib/avr6\libc.a(tolower.o)
                              cardreader.o (tolower)
c:/program files (x86)/atmel/atmel toolchain/avr8 gcc/native/3.4.2.1002/avr8-gnu-toolchain/bin/../lib/gcc/avr/4.7.2/../../../../avr/lib/avr6\libc.a(toupper.o)
                              C:\Users\Shady\Documents\Atmel Studio\arduinoCoreMega\libcore.a(WString.cpp.o) (toupper)
c:/program files (x86)/atmel/atmel toolchain/avr8 gcc/native/3.4.2.1002/avr8-gnu-toolchain/bin/../lib/gcc/avr/4.7.2/../../../../avr/lib/avr6\libc.a(strcpy_P.o)
                              Marlin_main.o (strcpy_P)
c:/program files (x86)/atmel/atmel toolchain/avr8 gcc/native/3.4.2.1002/avr8-gnu-toolchain/bin/../lib/gcc/avr/4.7.2/../../../../avr/lib/avr6\libc.a(strlen_P.o)
                              ultralcd.o (__strlen_P)
c:/program files (x86)/atmel/atmel toolchain/avr8 gcc/native/3.4.2.1002/avr8-gnu-toolchain/bin/../lib/gcc/avr/4.7.2/../../../../avr/lib/avr6\libc.a(strncasecmp_P.o)
                              c:/program files (x86)/atmel/atmel toolchain/avr8 gcc/native/3.4.2.1002/avr8-gnu-toolchain/bin/../lib/gcc/avr/4.7.2/../../../../avr/lib/avr6\libc.a(strtod.o) (strncasecmp_P)
c:/program files (x86)/atmel/atmel toolchain/avr8 gcc/native/3.4.2.1002/avr8-gnu-toolchain/bin/../lib/gcc/avr/4.7.2/../../../../avr/lib/avr6\libc.a(strncpy_P.o)
                              ultralcd.o (strncpy_P)
c:/program files (x86)/atmel/atmel toolchain/avr8 gcc/native/3.4.2.1002/avr8-gnu-toolchain/bin/../lib/gcc/avr/4.7.2/../../../../avr/lib/avr6\libc.a(strstr_P.o)
                              Marlin_main.o (strstr_P)
c:/program files (x86)/atmel/atmel toolchain/avr8 gcc/native/3.4.2.1002/avr8-gnu-toolchain/bin/../lib/gcc/avr/4.7.2/../../../../avr/lib/avr6\libc.a(memcmp.o)
                              SdBaseFile.o (memcmp)
c:/program files (x86)/atmel/atmel toolchain/avr8 gcc/native/3.4.2.1002/avr8-gnu-toolchain/bin/../lib/gcc/avr/4.7.2/../../../../avr/lib/avr6\libc.a(memcpy.o)
                              SdBaseFile.o (memcpy)
c:/program files (x86)/atmel/atmel toolchain/avr8 gcc/native/3.4.2.1002/avr8-gnu-toolchain/bin/../lib/gcc/avr/4.7.2/../../../../avr/lib/avr6\libc.a(memmove.o)
                              C:\Users\Shady\Documents\Atmel Studio\arduinoCoreMega\libcore.a(WString.cpp.o) (memmove)
c:/program files (x86)/atmel/atmel toolchain/avr8 gcc/native/3.4.2.1002/avr8-gnu-toolchain/bin/../lib/gcc/avr/4.7.2/../../../../avr/lib/avr6\libc.a(strcat.o)
                              cardreader.o (strcat)
c:/program files (x86)/atmel/atmel toolchain/avr8 gcc/native/3.4.2.1002/avr8-gnu-toolchain/bin/../lib/gcc/avr/4.7.2/../../../../avr/lib/avr6\libc.a(strchr.o)
                              cardreader.o (strchr)
c:/program files (x86)/atmel/atmel toolchain/avr8 gcc/native/3.4.2.1002/avr8-gnu-toolchain/bin/../lib/gcc/avr/4.7.2/../../../../avr/lib/avr6\libc.a(strcmp.o)
                              C:\Users\Shady\Documents\Atmel Studio\arduinoCoreMega\libcore.a(WString.cpp.o) (strcmp)
c:/program files (x86)/atmel/atmel toolchain/avr8 gcc/native/3.4.2.1002/avr8-gnu-toolchain/bin/../lib/gcc/avr/4.7.2/../../../../avr/lib/avr6\libc.a(strcpy.o)
                              Marlin_main.o (strcpy)
c:/program files (x86)/atmel/atmel toolchain/avr8 gcc/native/3.4.2.1002/avr8-gnu-toolchain/bin/../lib/gcc/avr/4.7.2/../../../../avr/lib/avr6\libc.a(strncmp.o)
                              cardreader.o (strncmp)
c:/program files (x86)/atmel/atmel toolchain/avr8 gcc/native/3.4.2.1002/avr8-gnu-toolchain/bin/../lib/gcc/avr/4.7.2/../../../../avr/lib/avr6\libc.a(strncpy.o)
                              cardreader.o (strncpy)
c:/program files (x86)/atmel/atmel toolchain/avr8 gcc/native/3.4.2.1002/avr8-gnu-toolchain/bin/../lib/gcc/avr/4.7.2/../../../../avr/lib/avr6\libc.a(strrchr.o)
                              C:\Users\Shady\Documents\Atmel Studio\arduinoCoreMega\libcore.a(WString.cpp.o) (strrchr)
c:/program files (x86)/atmel/atmel toolchain/avr8 gcc/native/3.4.2.1002/avr8-gnu-toolchain/bin/../lib/gcc/avr/4.7.2/../../../../avr/lib/avr6\libc.a(strstr.o)
                              C:\Users\Shady\Documents\Atmel Studio\arduinoCoreMega\libcore.a(WString.cpp.o) (strstr)
c:/program files (x86)/atmel/atmel toolchain/avr8 gcc/native/3.4.2.1002/avr8-gnu-toolchain/bin/../lib/gcc/avr/4.7.2/../../../../avr/lib/avr6\libc.a(itoa.o)
                              C:\Users\Shady\Documents\Atmel Studio\arduinoCoreMega\libcore.a(WString.cpp.o) (itoa)
c:/program files (x86)/atmel/atmel toolchain/avr8 gcc/native/3.4.2.1002/avr8-gnu-toolchain/bin/../lib/gcc/avr/4.7.2/../../../../avr/lib/avr6\libc.a(ltoa.o)
                              C:\Users\Shady\Documents\Atmel Studio\arduinoCoreMega\libcore.a(WString.cpp.o) (ltoa)
c:/program files (x86)/atmel/atmel toolchain/avr8 gcc/native/3.4.2.1002/avr8-gnu-toolchain/bin/../lib/gcc/avr/4.7.2/../../../../avr/lib/avr6\libc.a(mulsi10.o)
                              c:/program files (x86)/atmel/atmel toolchain/avr8 gcc/native/3.4.2.1002/avr8-gnu-toolchain/bin/../lib/gcc/avr/4.7.2/../../../../avr/lib/avr6\libc.a(atol.o) (__mulsi_const_10)
c:/program files (x86)/atmel/atmel toolchain/avr8 gcc/native/3.4.2.1002/avr8-gnu-toolchain/bin/../lib/gcc/avr/4.7.2/../../../../avr/lib/avr6\libc.a(ultoa.o)
                              C:\Users\Shady\Documents\Atmel Studio\arduinoCoreMega\libcore.a(WString.cpp.o) (ultoa)
c:/program files (x86)/atmel/atmel toolchain/avr8 gcc/native/3.4.2.1002/avr8-gnu-toolchain/bin/../lib/gcc/avr/4.7.2/../../../../avr/lib/avr6\libc.a(utoa.o)
                              C:\Users\Shady\Documents\Atmel Studio\arduinoCoreMega\libcore.a(WString.cpp.o) (utoa)
c:/program files (x86)/atmel/atmel toolchain/avr8 gcc/native/3.4.2.1002/avr8-gnu-toolchain/bin/../lib/gcc/avr/4.7.2/../../../../avr/lib/avr6\libc.a(sprintf_p.o)
                              cardreader.o (sprintf_P)
c:/program files (x86)/atmel/atmel toolchain/avr8 gcc/native/3.4.2.1002/avr8-gnu-toolchain/bin/../lib/gcc/avr/4.7.2/../../../../avr/lib/avr6\libc.a(vfprintf_std.o)
                              c:/program files (x86)/atmel/atmel toolchain/avr8 gcc/native/3.4.2.1002/avr8-gnu-toolchain/bin/../lib/gcc/avr/4.7.2/../../../../avr/lib/avr6\libc.a(sprintf_p.o) (vfprintf)
c:/program files (x86)/atmel/atmel toolchain/avr8 gcc/native/3.4.2.1002/avr8-gnu-toolchain/bin/../lib/gcc/avr/4.7.2/../../../../avr/lib/avr6\libc.a(eerd_byte_atmega2560.o)
                              ConfigurationStore.o (__eerd_byte_m2560)
c:/program files (x86)/atmel/atmel toolchain/avr8 gcc/native/3.4.2.1002/avr8-gnu-toolchain/bin/../lib/gcc/avr/4.7.2/../../../../avr/lib/avr6\libc.a(eewr_byte_atmega2560.o)
                              ConfigurationStore.o (__eewr_byte_m2560)
c:/program files (x86)/atmel/atmel toolchain/avr8 gcc/native/3.4.2.1002/avr8-gnu-toolchain/bin/../lib/gcc/avr/4.7.2/../../../../avr/lib/avr6\libc.a(errno.o)
                              c:/program files (x86)/atmel/atmel toolchain/avr8 gcc/native/3.4.2.1002/avr8-gnu-toolchain/bin/../lib/gcc/avr/4.7.2/../../../../avr/lib/avr6\libc.a(strtod.o) (errno)
c:/program files (x86)/atmel/atmel toolchain/avr8 gcc/native/3.4.2.1002/avr8-gnu-toolchain/bin/../lib/gcc/avr/4.7.2/../../../../avr/lib/avr6\libc.a(cty_isfalse.o)
                              c:/program files (x86)/atmel/atmel toolchain/avr8 gcc/native/3.4.2.1002/avr8-gnu-toolchain/bin/../lib/gcc/avr/4.7.2/../../../../avr/lib/avr6\libc.a(isspace.o) (__ctype_isfalse)
c:/program files (x86)/atmel/atmel toolchain/avr8 gcc/native/3.4.2.1002/avr8-gnu-toolchain/bin/../lib/gcc/avr/4.7.2/../../../../avr/lib/avr6\libc.a(strnlen_P.o)
                              c:/program files (x86)/atmel/atmel toolchain/avr8 gcc/native/3.4.2.1002/avr8-gnu-toolchain/bin/../lib/gcc/avr/4.7.2/../../../../avr/lib/avr6\libc.a(vfprintf_std.o) (strnlen_P)
c:/program files (x86)/atmel/atmel toolchain/avr8 gcc/native/3.4.2.1002/avr8-gnu-toolchain/bin/../lib/gcc/avr/4.7.2/../../../../avr/lib/avr6\libc.a(strnlen.o)
                              c:/program files (x86)/atmel/atmel toolchain/avr8 gcc/native/3.4.2.1002/avr8-gnu-toolchain/bin/../lib/gcc/avr/4.7.2/../../../../avr/lib/avr6\libc.a(vfprintf_std.o) (strnlen)
c:/program files (x86)/atmel/atmel toolchain/avr8 gcc/native/3.4.2.1002/avr8-gnu-toolchain/bin/../lib/gcc/avr/4.7.2/../../../../avr/lib/avr6\libc.a(strrev.o)
                              c:/program files (x86)/atmel/atmel toolchain/avr8 gcc/native/3.4.2.1002/avr8-gnu-toolchain/bin/../lib/gcc/avr/4.7.2/../../../../avr/lib/avr6\libc.a(itoa.o) (strrev)
c:/program files (x86)/atmel/atmel toolchain/avr8 gcc/native/3.4.2.1002/avr8-gnu-toolchain/bin/../lib/gcc/avr/4.7.2/../../../../avr/lib/avr6\libc.a(fputc.o)
                              c:/program files (x86)/atmel/atmel toolchain/avr8 gcc/native/3.4.2.1002/avr8-gnu-toolchain/bin/../lib/gcc/avr/4.7.2/../../../../avr/lib/avr6\libc.a(vfprintf_std.o) (fputc)
c:/program files (x86)/atmel/atmel toolchain/avr8 gcc/native/3.4.2.1002/avr8-gnu-toolchain/bin/../lib/gcc/avr/4.7.2/../../../../avr/lib/avr6\libc.a(ultoa_invert.o)
                              c:/program files (x86)/atmel/atmel toolchain/avr8 gcc/native/3.4.2.1002/avr8-gnu-toolchain/bin/../lib/gcc/avr/4.7.2/../../../../avr/lib/avr6\libc.a(vfprintf_std.o) (__ultoa_invert)

Allocating common symbols
Common symbol       size              file

errno               0x2               c:/program files (x86)/atmel/atmel toolchain/avr8 gcc/native/3.4.2.1002/avr8-gnu-toolchain/bin/../lib/gcc/avr/4.7.2/../../../../avr/lib/avr6\libc.a(errno.o)
__brkval            0x2               C:\Users\Shady\Documents\Atmel Studio\arduinoCoreMega\libcore.a(malloc.c.o)
__flp               0x2               C:\Users\Shady\Documents\Atmel Studio\arduinoCoreMega\libcore.a(malloc.c.o)

Discarded input sections

 .bss           0x00000000        0x0 c:/program files (x86)/atmel/atmel toolchain/avr8 gcc/native/3.4.2.1002/avr8-gnu-toolchain/bin/../lib/gcc/avr/4.7.2/../../../../avr/lib/avr6/crtm2560.o
 .text          0x00000000        0x0 libs/I2CIO.o
 .bss           0x00000000        0x0 libs/I2CIO.o
 .text._ZN5I2CIO7pinModeEhh
                0x00000000       0x42 libs/I2CIO.o
 .text._ZN5I2CIO4readEv
                0x00000000       0x2e libs/I2CIO.o
 .text._ZN5I2CIO11digitalReadEh
                0x00000000       0x3c libs/I2CIO.o
 .text._ZN5I2CIO12digitalWriteEhh
                0x00000000       0x58 libs/I2CIO.o
 .group         0x00000000        0x8 libs/LCD.o
 .group         0x00000000        0x8 libs/LCD.o
 .group         0x00000000        0x8 libs/LCD.o
 .text          0x00000000        0x0 libs/LCD.o
 .bss           0x00000000        0x0 libs/LCD.o
 .text._ZN3LCD11noBacklightEv
                0x00000000       0x12 libs/LCD.o
 .text._ZN3LCD12noAutoscrollEv
                0x00000000       0x10 libs/LCD.o
 .text._ZN3LCD10autoscrollEv
                0x00000000       0x12 libs/LCD.o
 .text._ZN3LCD14moveCursorLeftEv
                0x00000000        0x8 libs/LCD.o
 .text._ZN3LCD15moveCursorRightEv
                0x00000000        0x8 libs/LCD.o
 .text._ZN3LCD11rightToLeftEv
                0x00000000       0x10 libs/LCD.o
 .text._ZN3LCD11leftToRightEv
                0x00000000       0x12 libs/LCD.o
 .text._ZN3LCD18scrollDisplayRightEv
                0x00000000        0x8 libs/LCD.o
 .text._ZN3LCD17scrollDisplayLeftEv
                0x00000000        0x8 libs/LCD.o
 .text._ZN3LCD5blinkEv
                0x00000000       0x12 libs/LCD.o
 .text._ZN3LCD7noBlinkEv
                0x00000000       0x10 libs/LCD.o
 .text._ZN3LCD6cursorEv
                0x00000000       0x12 libs/LCD.o
 .text._ZN3LCD8noCursorEv
                0x00000000       0x10 libs/LCD.o
 .text._ZN3LCD2onEv
                0x00000000       0x16 libs/LCD.o
 .text._ZN3LCD9noDisplayEv
                0x00000000       0x10 libs/LCD.o
 .text._ZN3LCD3offEv
                0x00000000       0x16 libs/LCD.o
 .text._ZN3LCD4homeEv
                0x00000000       0x10 libs/LCD.o
 .group         0x00000000        0x8 libs/LiquidCrystal_I2C.o
 .text          0x00000000        0x0 libs/LiquidCrystal_I2C.o
 .bss           0x00000000        0x0 libs/LiquidCrystal_I2C.o
 .text._ZN17LiquidCrystal_I2CC2Ehhhhhhhh
                0x00000000       0x60 libs/LiquidCrystal_I2C.o
 .text._ZN17LiquidCrystal_I2CC2Ehhhhh13t_backlighPol
                0x00000000       0x7c libs/LiquidCrystal_I2C.o
 .text._ZN17LiquidCrystal_I2CC2Ehhhh
                0x00000000       0x66 libs/LiquidCrystal_I2C.o
 .text._ZN17LiquidCrystal_I2CC2Ehh13t_backlighPol
                0x00000000       0x72 libs/LiquidCrystal_I2C.o
 .text._ZN17LiquidCrystal_I2CC2Eh
                0x00000000       0x5c libs/LiquidCrystal_I2C.o
 .group         0x00000000        0x8 libs/LiquidTWI2.o
 .group         0x00000000        0x8 libs/LiquidTWI2.o
 .text          0x00000000        0x0 libs/LiquidTWI2.o
 .bss           0x00000000        0x0 libs/LiquidTWI2.o
 .text._ZN10LiquidTWI2C2Ehh
                0x00000000       0x22 libs/LiquidTWI2.o
 .text._ZN10LiquidTWI211readButtonsEv
                0x00000000       0x54 libs/LiquidTWI2.o
 .text._ZN10LiquidTWI211burstBits16Ej
                0x00000000       0x48 libs/LiquidTWI2.o
 .text._ZN10LiquidTWI211burstBits8bEh
                0x00000000       0x38 libs/LiquidTWI2.o
 .text._ZN10LiquidTWI210burstBits8Eh
                0x00000000       0x38 libs/LiquidTWI2.o
 .text._ZN10LiquidTWI24sendEhh
                0x00000000       0xfe libs/LiquidTWI2.o
 .text._ZN10LiquidTWI25writeEh
                0x00000000        0xc libs/LiquidTWI2.o
 .text._ZN10LiquidTWI29noDisplayEv
                0x00000000       0x18 libs/LiquidTWI2.o
 .text._ZN10LiquidTWI24homeEv
                0x00000000       0x12 libs/LiquidTWI2.o
 .rodata        0x00000000        0x8 libs/LiquidTWI2.o
 .text._ZN10LiquidTWI29setCursorEhh
                0x00000000       0x64 libs/LiquidTWI2.o
 .text._ZN10LiquidTWI210createCharEhPh
                0x00000000       0x6a libs/LiquidTWI2.o
 .text._ZN10LiquidTWI25clearEv
                0x00000000       0x1a libs/LiquidTWI2.o
 .text._ZN10LiquidTWI212noAutoscrollEv
                0x00000000       0x18 libs/LiquidTWI2.o
 .text._ZN10LiquidTWI210autoscrollEv
                0x00000000       0x1a libs/LiquidTWI2.o
 .text._ZN10LiquidTWI211rightToLeftEv
                0x00000000       0x18 libs/LiquidTWI2.o
 .text._ZN10LiquidTWI211leftToRightEv
                0x00000000       0x1a libs/LiquidTWI2.o
 .text._ZN10LiquidTWI218scrollDisplayRightEv
                0x00000000       0x12 libs/LiquidTWI2.o
 .text._ZN10LiquidTWI217scrollDisplayLeftEv
                0x00000000       0x12 libs/LiquidTWI2.o
 .text._ZN10LiquidTWI25blinkEv
                0x00000000       0x1a libs/LiquidTWI2.o
 .text._ZN10LiquidTWI27noBlinkEv
                0x00000000       0x18 libs/LiquidTWI2.o
 .text._ZN10LiquidTWI26cursorEv
                0x00000000       0x1a libs/LiquidTWI2.o
 .text._ZN10LiquidTWI28noCursorEv
                0x00000000       0x18 libs/LiquidTWI2.o
 .text._ZN10LiquidTWI27displayEv
                0x00000000       0x1a libs/LiquidTWI2.o
 .text._ZN10LiquidTWI212setBacklightEh
                0x00000000       0x72 libs/LiquidTWI2.o
 .text._ZN10LiquidTWI25beginEhhh
                0x00000000      0x29e libs/LiquidTWI2.o
 .text._ZN10LiquidTWI212readRegisterEh
                0x00000000       0x4c libs/LiquidTWI2.o
 .text._ZN10LiquidTWI211setRegisterEhh
                0x00000000       0x3a libs/LiquidTWI2.o
 .text._ZN10LiquidTWI24buzzElj
                0x00000000      0x1da libs/LiquidTWI2.o
 .rodata._ZTV10LiquidTWI2
                0x00000000        0x8 libs/LiquidTWI2.o
 .text          0x00000000        0x0 cardreader.o
 .bss           0x00000000        0x0 cardreader.o
 .text._ZN10CardReader7setrootEv
                0x00000000       0x34 cardreader.o
 .text          0x00000000        0x0 ConfigurationStore.o
 .bss           0x00000000        0x0 ConfigurationStore.o
 .text._Z17_EEPROM_writeDataRiPhh
                0x00000000       0x38 ConfigurationStore.o
 .text._Z16_EEPROM_readDataRiPhh
                0x00000000       0x38 ConfigurationStore.o
 .group         0x00000000        0x8 libs/Wire.o
 .group         0x00000000        0x8 libs/Wire.o
 .text          0x00000000        0x0 libs/Wire.o
 .bss           0x00000000        0x0 libs/Wire.o
 .text._ZN7TwoWire16onReceiveServiceEPhi
                0x00000000       0x4e libs/Wire.o
 .text._ZN7TwoWire16onRequestServiceEv
                0x00000000       0x18 libs/Wire.o
 .text._ZN7TwoWire5beginEh
                0x00000000       0x28 libs/Wire.o
 .text._ZN7TwoWire5beginEi
                0x00000000        0x6 libs/Wire.o
 .text._ZN7TwoWire11requestFromEii
                0x00000000        0x8 libs/Wire.o
 .text._ZN7TwoWire11requestFromEiii
                0x00000000        0x6 libs/Wire.o
 .text._ZN7TwoWire17beginTransmissionEi
                0x00000000        0x6 libs/Wire.o
 .text._ZN7TwoWire9onReceiveEPFviE
                0x00000000        0xa libs/Wire.o
 .text._ZN7TwoWire9onRequestEPFvvE
                0x00000000        0xa libs/Wire.o
 .bss._ZN7TwoWire14user_onReceiveE
                0x00000000        0x2 libs/Wire.o
 .bss._ZN7TwoWire14user_onRequestE
                0x00000000        0x2 libs/Wire.o
 .rodata._ZTV6Stream
                0x00000000       0x10 libs/Wire.o
 .group         0x00000000        0x8 LiquidCrystalRus.o
 .text          0x00000000        0x0 LiquidCrystalRus.o
 .bss           0x00000000        0x0 LiquidCrystalRus.o
 .text._ZN16LiquidCrystalRus12setDRAMModelEh
                0x00000000        0x6 LiquidCrystalRus.o
 .text._ZN16LiquidCrystalRus11pulseEnableEv
                0x00000000       0x3c LiquidCrystalRus.o
 .text._ZN16LiquidCrystalRus10writeNbitsEhh
                0x00000000       0x84 LiquidCrystalRus.o
 .text._ZN16LiquidCrystalRus4sendEhh
                0x00000000       0x60 LiquidCrystalRus.o
 .text._ZN16LiquidCrystalRus10createCharEhPh
                0x00000000       0x5e LiquidCrystalRus.o
 .text._ZN16LiquidCrystalRus12noAutoscrollEv
                0x00000000       0x12 LiquidCrystalRus.o
 .text._ZN16LiquidCrystalRus10autoscrollEv
                0x00000000       0x14 LiquidCrystalRus.o
 .text._ZN16LiquidCrystalRus11rightToLeftEv
                0x00000000       0x12 LiquidCrystalRus.o
 .text._ZN16LiquidCrystalRus11leftToRightEv
                0x00000000       0x14 LiquidCrystalRus.o
 .text._ZN16LiquidCrystalRus18scrollDisplayRightEv
                0x00000000        0xa LiquidCrystalRus.o
 .text._ZN16LiquidCrystalRus17scrollDisplayLeftEv
                0x00000000        0xa LiquidCrystalRus.o
 .text._ZN16LiquidCrystalRus5blinkEv
                0x00000000       0x14 LiquidCrystalRus.o
 .text._ZN16LiquidCrystalRus7noBlinkEv
                0x00000000       0x12 LiquidCrystalRus.o
 .text._ZN16LiquidCrystalRus6cursorEv
                0x00000000       0x14 LiquidCrystalRus.o
 .text._ZN16LiquidCrystalRus8noCursorEv
                0x00000000       0x12 LiquidCrystalRus.o
 .text._ZN16LiquidCrystalRus7displayEv
                0x00000000       0x14 LiquidCrystalRus.o
 .text._ZN16LiquidCrystalRus9noDisplayEv
                0x00000000       0x12 LiquidCrystalRus.o
 .rodata        0x00000000        0x8 LiquidCrystalRus.o
 .text._ZN16LiquidCrystalRus9setCursorEhh
                0x00000000       0x5c LiquidCrystalRus.o
 .text._ZN16LiquidCrystalRus4homeEv
                0x00000000       0x12 LiquidCrystalRus.o
 .text._ZN16LiquidCrystalRus5clearEv
                0x00000000       0x12 LiquidCrystalRus.o
 .text._ZN16LiquidCrystalRus5beginEhhh
                0x00000000       0xf0 LiquidCrystalRus.o
 .text._ZN16LiquidCrystalRus4initEhhhhhhhhhhhh
                0x00000000       0x8e LiquidCrystalRus.o
 .text._ZN16LiquidCrystalRusC2Ehhhhhh
                0x00000000       0x4c LiquidCrystalRus.o
 .text._ZN16LiquidCrystalRusC2Ehhhhhhh
                0x00000000       0x4c LiquidCrystalRus.o
 .text._ZN16LiquidCrystalRusC2Ehhhhhhhhhh
                0x00000000       0x5c LiquidCrystalRus.o
 .text._ZN16LiquidCrystalRusC2Ehhhhhhhhhhh
                0x00000000       0x5e LiquidCrystalRus.o
 .text._ZN16LiquidCrystalRus9readNbitsEh
                0x00000000      0x102 LiquidCrystalRus.o
 .text._ZN16LiquidCrystalRus4recvEh
                0x00000000       0x4a LiquidCrystalRus.o
 .text._ZN16LiquidCrystalRus5writeEh
                0x00000000       0x9e LiquidCrystalRus.o
 .rodata._ZTV16LiquidCrystalRus
                0x00000000        0x8 LiquidCrystalRus.o
 .progmem.data._ZL10utf_recode
                0x00000000       0x40 LiquidCrystalRus.o
 .text          0x00000000        0x0 Marlin.o
 .bss           0x00000000        0x0 Marlin.o
 .text          0x00000000        0x0 MarlinSerial.o
 .bss           0x00000000        0x0 MarlinSerial.o
 .text._ZN12MarlinSerialC2Ev
                0x00000000        0x2 MarlinSerial.o
 .text._ZN12MarlinSerial3endEv
                0x00000000       0x18 MarlinSerial.o
 .text._ZN12MarlinSerial4peekEv
                0x00000000       0x2c MarlinSerial.o
 .text._ZN12MarlinSerial7printlnEmi
                0x00000000       0x16 MarlinSerial.o
 .text._ZN12MarlinSerial7printlnEii
                0x00000000       0x16 MarlinSerial.o
 .text._ZN12MarlinSerial7printlnEhi
                0x00000000       0x16 MarlinSerial.o
 .text._ZN12MarlinSerial7printlnEPKc
                0x00000000       0x30 MarlinSerial.o
 .text._ZN12MarlinSerial7printlnERK6String
                0x00000000       0x74 MarlinSerial.o
 .text._ZN12MarlinSerial7printlnEci
                0x00000000       0x16 MarlinSerial.o
 .text._ZN12MarlinSerial7printlnEli
                0x00000000       0x16 MarlinSerial.o
 .text._ZN12MarlinSerial7printlnEdi
                0x00000000       0x16 MarlinSerial.o
 .text          0x00000000        0x0 Marlin_main.o
 .bss           0x00000000        0x0 Marlin_main.o
 .text._Z17serial_echopair_PPKcd
                0x00000000       0x36 Marlin_main.o
 .text._Z17serial_echopair_PPKcm
                0x00000000       0x36 Marlin_main.o
 .text._Z13setup_killpinv
                0x00000000        0x2 Marlin_main.o
 .text._Z13setup_photpinv
                0x00000000        0x2 Marlin_main.o
 .text._Z10servo_initv
                0x00000000        0x2 Marlin_main.o
 .text          0x00000000        0x0 motion_control.o
 .bss           0x00000000        0x0 motion_control.o
 .text          0x00000000        0x0 planner.o
 .bss           0x00000000        0x0 planner.o
 .data.junction_deviation
                0x00000000        0x4 planner.o
 .text          0x00000000        0x0 Sd2Card.o
 .bss           0x00000000        0x0 Sd2Card.o
 .text._ZN7Sd2Card8readDataEPh
                0x00000000       0x26 Sd2Card.o
 .text._ZN7Sd2Card8readStopEv
                0x00000000       0x38 Sd2Card.o
 .text._ZN7Sd2Card9readStartEm
                0x00000000       0x4a Sd2Card.o
 .text._ZN7Sd2Card12readRegisterEhPv
                0x00000000       0x3e Sd2Card.o
 .text._ZN7Sd2Card8cardSizeEv
                0x00000000      0x112 Sd2Card.o
 .text._ZN7Sd2Card22eraseSingleBlockEnableEv
                0x00000000       0x42 Sd2Card.o
 .text._ZN7Sd2Card5eraseEmm
                0x00000000      0x146 Sd2Card.o
 .text._ZN7Sd2Card9writeDataEPKh
                0x00000000       0x4c Sd2Card.o
 .text._ZN7Sd2Card10writeStartEmm
                0x00000000       0x9e Sd2Card.o
 .text._ZN7Sd2Card9writeStopEv
                0x00000000       0x48 Sd2Card.o
 .text          0x00000000        0x0 SdBaseFile.o
 .bss           0x00000000        0x0 SdBaseFile.o
 .text._ZL7print2uh
                0x00000000       0x24 SdBaseFile.o
 .text._ZN10SdBaseFile15contiguousRangeEPmS0_
                0x00000000      0x178 SdBaseFile.o
 .text._ZN10SdBaseFile6getposEP6fpos_t
                0x00000000       0x36 SdBaseFile.o
 .text._ZN10SdBaseFile12printDirNameERK14directoryEntryhb
                0x00000000       0x9a SdBaseFile.o
 .text._ZN10SdBaseFile12printFatDateEj
                0x00000000       0x64 SdBaseFile.o
 .text._ZN10SdBaseFile12printFatTimeEj
                0x00000000       0x5c SdBaseFile.o
 .text._ZN10SdBaseFile9printNameEv
                0x00000000       0x66 SdBaseFile.o
 .text._ZN10SdBaseFile11lsPrintNextEhh
                0x00000000      0x1b8 SdBaseFile.o
 .text._ZN10SdBaseFile5fgetsEPciS0_
                0x00000000       0xd4 SdBaseFile.o
 .text._ZN10SdBaseFile6setposEP6fpos_t
                0x00000000       0x2c SdBaseFile.o
 .text._ZN10SdBaseFile4peekEv
                0x00000000       0x6e SdBaseFile.o
 .text._ZN10SdBaseFile8dirEntryEP14directoryEntry
                0x00000000       0x42 SdBaseFile.o
 .text._ZN10SdBaseFile9timestampEPS_
                0x00000000       0x94 SdBaseFile.o
 .text._ZN10SdBaseFile9timestampEhjhhhhh
                0x00000000      0x138 SdBaseFile.o
 .text._ZN10SdBaseFile5rmdirEv
                0x00000000       0x76 SdBaseFile.o
 .text._ZN10SdBaseFile8openNextEPS_h
                0x00000000       0xa0 SdBaseFile.o
 .text._ZN10SdBaseFile4openEPS_jh
                0x00000000       0xa6 SdBaseFile.o
 .text._ZN10SdBaseFile8rmRfStarEv
                0x00000000      0x156 SdBaseFile.o
 .text._ZN10SdBaseFile2lsEhh
                0x00000000       0xe6 SdBaseFile.o
 .text._ZN10SdBaseFile10openParentEPS_
                0x00000000      0x25a SdBaseFile.o
 .text._ZN10SdBaseFile4openEPKch
                0x00000000       0x14 SdBaseFile.o
 .text._ZN10SdBaseFileC2EPKch
                0x00000000        0xc SdBaseFile.o
 .text._ZN10SdBaseFile6existsEPKc
                0x00000000       0x4e SdBaseFile.o
 .text._ZN10SdBaseFile16createContiguousEPS_PKcm
                0x00000000       0xcc SdBaseFile.o
 .text._ZN10SdBaseFile5mkdirEPS_PKh
                0x00000000      0x1a0 SdBaseFile.o
 .text._ZN10SdBaseFile5mkdirEPS_PKcb
                0x00000000      0x1a0 SdBaseFile.o
 .text._ZN10SdBaseFile6renameEPS_PKc
                0x00000000      0x25c SdBaseFile.o
 .bss._ZN10SdBaseFile12oldDateTime_E
                0x00000000        0x2 SdBaseFile.o
 .bss._ZN10SdBaseFile4cwd_E
                0x00000000        0x2 SdBaseFile.o
 .text          0x00000000        0x0 SdFatUtil.o
 .bss           0x00000000        0x0 SdFatUtil.o
 .text._ZN9SdFatUtil7FreeRamEv
                0x00000000       0x42 SdFatUtil.o
 .text._ZN9SdFatUtil7print_PEPKc
                0x00000000       0x2a SdFatUtil.o
 .text._ZN9SdFatUtil9println_PEPKc
                0x00000000        0xe SdFatUtil.o
 .text._ZN9SdFatUtil13SerialPrint_PEPKc
                0x00000000        0x6 SdFatUtil.o
 .text._ZN9SdFatUtil15SerialPrintln_PEPKc
                0x00000000        0x6 SdFatUtil.o
 .group         0x00000000        0x8 SdFile.o
 .text          0x00000000        0x0 SdFile.o
 .bss           0x00000000        0x0 SdFile.o
 .text._ZN6SdFileC2EPKch
                0x00000000       0x1e SdFile.o
 .text._ZN6SdFile5writeEPKvj
                0x00000000        0x8 SdFile.o
 .text._ZN6SdFile7write_PEPKc
                0x00000000       0x38 SdFile.o
 .text._ZN6SdFile9writeln_PEPKc
                0x00000000       0x1a SdFile.o
 .progmem.data._ZZN6SdFile9writeln_PEPKcE3__c
                0x00000000        0x3 SdFile.o
 .text          0x00000000        0x0 SdVolume.o
 .bss           0x00000000        0x0 SdVolume.o
 .text._ZN8SdVolume16freeClusterCountEv
                0x00000000      0x16c SdVolume.o
 .text          0x00000000        0x0 Servo.o
 .bss           0x00000000        0x0 Servo.o
 .text          0x00000000        0x0 stepper.o
 .bss           0x00000000        0x0 stepper.o
 .text._Z9step_waitv
                0x00000000        0x2 stepper.o
 .text._Z15digitalPotWriteii
                0x00000000        0x2 stepper.o
 .text._Z12digipot_initv
                0x00000000        0x2 stepper.o
 .text._Z15digipot_currenthi
                0x00000000        0x2 stepper.o
 .text._Z14microstep_initv
                0x00000000        0x2 stepper.o
 .text._Z12microstep_mshaa
                0x00000000       0xb0 stepper.o
 .text._Z14microstep_modehh
                0x00000000       0x4c stepper.o
 .text._Z18microstep_readingsv
                0x00000000      0x1ee stepper.o
 .bss.endstops_stepsDone
                0x00000000        0x4 stepper.o
 .bss.endstops_stepsTotal
                0x00000000        0x4 stepper.o
 .progmem.data._ZZ18microstep_readingsvE3__c
                0x00000000        0xe stepper.o
 .progmem.data._ZZ18microstep_readingsvE3__c_0
                0x00000000        0x4 stepper.o
 .progmem.data._ZZ18microstep_readingsvE3__c_1
                0x00000000        0x4 stepper.o
 .progmem.data._ZZ18microstep_readingsvE3__c_2
                0x00000000        0x4 stepper.o
 .progmem.data._ZZ18microstep_readingsvE3__c_3
                0x00000000        0x5 stepper.o
 .progmem.data._ZZ18microstep_readingsvE3__c_4
                0x00000000        0x5 stepper.o
 .text          0x00000000        0x0 temperature.o
 .bss           0x00000000        0x0 temperature.o
 .text._Z18bed_max_temp_errorv
                0x00000000       0x74 temperature.o
 .progmem.data._ZZ18bed_max_temp_errorvE3__c
                0x00000000       0x3a temperature.o
 .progmem.data._ZZ18bed_max_temp_errorvE3__c_0
                0x00000000       0x11 temperature.o
 .text          0x00000000        0x0 twi.o
 .bss           0x00000000        0x0 twi.o
 .text.twi_setAddress
                0x00000000        0x8 twi.o
 .text.twi_attachSlaveRxEvent
                0x00000000        0xa twi.o
 .text.twi_attachSlaveTxEvent
                0x00000000        0xa twi.o
 .text.twi_reply
                0x00000000       0x10 twi.o
 .text          0x00000000        0x0 ultralcd.o
 .bss           0x00000000        0x0 ultralcd.o
 .text._Z8lcd_buzzlj
                0x00000000        0x2 ultralcd.o
 .text._Z10ftostr31nsRKf
                0x00000000       0x8a ultralcd.o
 .text._Z26menu_edit_callback_float32v
                0x00000000      0x150 ultralcd.o
 .text._Z8itostr31RKi
                0x00000000       0x84 ultralcd.o
 .text._Z25menu_edit_callback_float3v
                0x00000000      0x138 ultralcd.o
 .text._Z23menu_edit_callback_int3v
                0x00000000      0x10a ultralcd.o
 .text._Z7itostr4RKi
                0x00000000       0x9e ultralcd.o
 .text._Z15menu_edit_long5v
                0x00000000      0x14a ultralcd.o
 .text._Z25menu_edit_callback_float5v
                0x00000000      0x150 ultralcd.o
 .text._Z26menu_edit_callback_float51v
                0x00000000      0x150 ultralcd.o
 .text          0x00000000        0x0 watchdog.o
 .bss           0x00000000        0x0 watchdog.o
 .text          0x00000000        0x0 c:/program files (x86)/atmel/atmel toolchain/avr8 gcc/native/3.4.2.1002/avr8-gnu-toolchain/bin/../lib/gcc/avr/4.7.2/../../../../avr/lib/avr6\libm.a(addsf3.o)
 .bss           0x00000000        0x0 c:/program files (x86)/atmel/atmel toolchain/avr8 gcc/native/3.4.2.1002/avr8-gnu-toolchain/bin/../lib/gcc/avr/4.7.2/../../../../avr/lib/avr6\libm.a(addsf3.o)
 .text          0x00000000        0x0 c:/program files (x86)/atmel/atmel toolchain/avr8 gcc/native/3.4.2.1002/avr8-gnu-toolchain/bin/../lib/gcc/avr/4.7.2/../../../../avr/lib/avr6\libm.a(addsf3x.o)
 .bss           0x00000000        0x0 c:/program files (x86)/atmel/atmel toolchain/avr8 gcc/native/3.4.2.1002/avr8-gnu-toolchain/bin/../lib/gcc/avr/4.7.2/../../../../avr/lib/avr6\libm.a(addsf3x.o)
 .text          0x00000000        0x0 c:/program files (x86)/atmel/atmel toolchain/avr8 gcc/native/3.4.2.1002/avr8-gnu-toolchain/bin/../lib/gcc/avr/4.7.2/../../../../avr/lib/avr6\libm.a(atan2.o)
 .bss           0x00000000        0x0 c:/program files (x86)/atmel/atmel toolchain/avr8 gcc/native/3.4.2.1002/avr8-gnu-toolchain/bin/../lib/gcc/avr/4.7.2/../../../../avr/lib/avr6\libm.a(atan2.o)
 .text          0x00000000        0x0 c:/program files (x86)/atmel/atmel toolchain/avr8 gcc/native/3.4.2.1002/avr8-gnu-toolchain/bin/../lib/gcc/avr/4.7.2/../../../../avr/lib/avr6\libm.a(atan.o)
 .bss           0x00000000        0x0 c:/program files (x86)/atmel/atmel toolchain/avr8 gcc/native/3.4.2.1002/avr8-gnu-toolchain/bin/../lib/gcc/avr/4.7.2/../../../../avr/lib/avr6\libm.a(atan.o)
 .text          0x00000000        0x0 c:/program files (x86)/atmel/atmel toolchain/avr8 gcc/native/3.4.2.1002/avr8-gnu-toolchain/bin/../lib/gcc/avr/4.7.2/../../../../avr/lib/avr6\libm.a(ceil.o)
 .bss           0x00000000        0x0 c:/program files (x86)/atmel/atmel toolchain/avr8 gcc/native/3.4.2.1002/avr8-gnu-toolchain/bin/../lib/gcc/avr/4.7.2/../../../../avr/lib/avr6\libm.a(ceil.o)
 .text          0x00000000        0x0 c:/program files (x86)/atmel/atmel toolchain/avr8 gcc/native/3.4.2.1002/avr8-gnu-toolchain/bin/../lib/gcc/avr/4.7.2/../../../../avr/lib/avr6\libm.a(cmpsf2.o)
 .bss           0x00000000        0x0 c:/program files (x86)/atmel/atmel toolchain/avr8 gcc/native/3.4.2.1002/avr8-gnu-toolchain/bin/../lib/gcc/avr/4.7.2/../../../../avr/lib/avr6\libm.a(cmpsf2.o)
 .text          0x00000000        0x0 c:/program files (x86)/atmel/atmel toolchain/avr8 gcc/native/3.4.2.1002/avr8-gnu-toolchain/bin/../lib/gcc/avr/4.7.2/../../../../avr/lib/avr6\libm.a(cos.o)
 .bss           0x00000000        0x0 c:/program files (x86)/atmel/atmel toolchain/avr8 gcc/native/3.4.2.1002/avr8-gnu-toolchain/bin/../lib/gcc/avr/4.7.2/../../../../avr/lib/avr6\libm.a(cos.o)
 .text          0x00000000        0x0 c:/program files (x86)/atmel/atmel toolchain/avr8 gcc/native/3.4.2.1002/avr8-gnu-toolchain/bin/../lib/gcc/avr/4.7.2/../../../../avr/lib/avr6\libm.a(divsf3.o)
 .bss           0x00000000        0x0 c:/program files (x86)/atmel/atmel toolchain/avr8 gcc/native/3.4.2.1002/avr8-gnu-toolchain/bin/../lib/gcc/avr/4.7.2/../../../../avr/lib/avr6\libm.a(divsf3.o)
 .text          0x00000000        0x0 c:/program files (x86)/atmel/atmel toolchain/avr8 gcc/native/3.4.2.1002/avr8-gnu-toolchain/bin/../lib/gcc/avr/4.7.2/../../../../avr/lib/avr6\libm.a(divsf3x.o)
 .bss           0x00000000        0x0 c:/program files (x86)/atmel/atmel toolchain/avr8 gcc/native/3.4.2.1002/avr8-gnu-toolchain/bin/../lib/gcc/avr/4.7.2/../../../../avr/lib/avr6\libm.a(divsf3x.o)
 .text          0x00000000        0x0 c:/program files (x86)/atmel/atmel toolchain/avr8 gcc/native/3.4.2.1002/avr8-gnu-toolchain/bin/../lib/gcc/avr/4.7.2/../../../../avr/lib/avr6\libm.a(fixsfsi.o)
 .bss           0x00000000        0x0 c:/program files (x86)/atmel/atmel toolchain/avr8 gcc/native/3.4.2.1002/avr8-gnu-toolchain/bin/../lib/gcc/avr/4.7.2/../../../../avr/lib/avr6\libm.a(fixsfsi.o)
 .text          0x00000000        0x0 c:/program files (x86)/atmel/atmel toolchain/avr8 gcc/native/3.4.2.1002/avr8-gnu-toolchain/bin/../lib/gcc/avr/4.7.2/../../../../avr/lib/avr6\libm.a(fixunssfsi.o)
 .bss           0x00000000        0x0 c:/program files (x86)/atmel/atmel toolchain/avr8 gcc/native/3.4.2.1002/avr8-gnu-toolchain/bin/../lib/gcc/avr/4.7.2/../../../../avr/lib/avr6\libm.a(fixunssfsi.o)
 .text          0x00000000        0x0 c:/program files (x86)/atmel/atmel toolchain/avr8 gcc/native/3.4.2.1002/avr8-gnu-toolchain/bin/../lib/gcc/avr/4.7.2/../../../../avr/lib/avr6\libm.a(floatsisf.o)
 .bss           0x00000000        0x0 c:/program files (x86)/atmel/atmel toolchain/avr8 gcc/native/3.4.2.1002/avr8-gnu-toolchain/bin/../lib/gcc/avr/4.7.2/../../../../avr/lib/avr6\libm.a(floatsisf.o)
 .text          0x00000000        0x0 c:/program files (x86)/atmel/atmel toolchain/avr8 gcc/native/3.4.2.1002/avr8-gnu-toolchain/bin/../lib/gcc/avr/4.7.2/../../../../avr/lib/avr6\libm.a(floor.o)
 .bss           0x00000000        0x0 c:/program files (x86)/atmel/atmel toolchain/avr8 gcc/native/3.4.2.1002/avr8-gnu-toolchain/bin/../lib/gcc/avr/4.7.2/../../../../avr/lib/avr6\libm.a(floor.o)
 .text          0x00000000        0x0 c:/program files (x86)/atmel/atmel toolchain/avr8 gcc/native/3.4.2.1002/avr8-gnu-toolchain/bin/../lib/gcc/avr/4.7.2/../../../../avr/lib/avr6\libm.a(fp_cmp.o)
 .bss           0x00000000        0x0 c:/program files (x86)/atmel/atmel toolchain/avr8 gcc/native/3.4.2.1002/avr8-gnu-toolchain/bin/../lib/gcc/avr/4.7.2/../../../../avr/lib/avr6\libm.a(fp_cmp.o)
 .text          0x00000000        0x0 c:/program files (x86)/atmel/atmel toolchain/avr8 gcc/native/3.4.2.1002/avr8-gnu-toolchain/bin/../lib/gcc/avr/4.7.2/../../../../avr/lib/avr6\libm.a(fp_inf.o)
 .bss           0x00000000        0x0 c:/program files (x86)/atmel/atmel toolchain/avr8 gcc/native/3.4.2.1002/avr8-gnu-toolchain/bin/../lib/gcc/avr/4.7.2/../../../../avr/lib/avr6\libm.a(fp_inf.o)
 .text          0x00000000        0x0 c:/program files (x86)/atmel/atmel toolchain/avr8 gcc/native/3.4.2.1002/avr8-gnu-toolchain/bin/../lib/gcc/avr/4.7.2/../../../../avr/lib/avr6\libm.a(fp_mintl.o)
 .bss           0x00000000        0x0 c:/program files (x86)/atmel/atmel toolchain/avr8 gcc/native/3.4.2.1002/avr8-gnu-toolchain/bin/../lib/gcc/avr/4.7.2/../../../../avr/lib/avr6\libm.a(fp_mintl.o)
 .text          0x00000000        0x0 c:/program files (x86)/atmel/atmel toolchain/avr8 gcc/native/3.4.2.1002/avr8-gnu-toolchain/bin/../lib/gcc/avr/4.7.2/../../../../avr/lib/avr6\libm.a(fp_mpack.o)
 .bss           0x00000000        0x0 c:/program files (x86)/atmel/atmel toolchain/avr8 gcc/native/3.4.2.1002/avr8-gnu-toolchain/bin/../lib/gcc/avr/4.7.2/../../../../avr/lib/avr6\libm.a(fp_mpack.o)
 .text          0x00000000        0x0 c:/program files (x86)/atmel/atmel toolchain/avr8 gcc/native/3.4.2.1002/avr8-gnu-toolchain/bin/../lib/gcc/avr/4.7.2/../../../../avr/lib/avr6\libm.a(fp_nan.o)
 .bss           0x00000000        0x0 c:/program files (x86)/atmel/atmel toolchain/avr8 gcc/native/3.4.2.1002/avr8-gnu-toolchain/bin/../lib/gcc/avr/4.7.2/../../../../avr/lib/avr6\libm.a(fp_nan.o)
 .text          0x00000000        0x0 c:/program files (x86)/atmel/atmel toolchain/avr8 gcc/native/3.4.2.1002/avr8-gnu-toolchain/bin/../lib/gcc/avr/4.7.2/../../../../avr/lib/avr6\libm.a(fp_powser.o)
 .bss           0x00000000        0x0 c:/program files (x86)/atmel/atmel toolchain/avr8 gcc/native/3.4.2.1002/avr8-gnu-toolchain/bin/../lib/gcc/avr/4.7.2/../../../../avr/lib/avr6\libm.a(fp_powser.o)
 .text          0x00000000        0x0 c:/program files (x86)/atmel/atmel toolchain/avr8 gcc/native/3.4.2.1002/avr8-gnu-toolchain/bin/../lib/gcc/avr/4.7.2/../../../../avr/lib/avr6\libm.a(fp_pscA.o)
 .bss           0x00000000        0x0 c:/program files (x86)/atmel/atmel toolchain/avr8 gcc/native/3.4.2.1002/avr8-gnu-toolchain/bin/../lib/gcc/avr/4.7.2/../../../../avr/lib/avr6\libm.a(fp_pscA.o)
 .text          0x00000000        0x0 c:/program files (x86)/atmel/atmel toolchain/avr8 gcc/native/3.4.2.1002/avr8-gnu-toolchain/bin/../lib/gcc/avr/4.7.2/../../../../avr/lib/avr6\libm.a(fp_pscB.o)
 .bss           0x00000000        0x0 c:/program files (x86)/atmel/atmel toolchain/avr8 gcc/native/3.4.2.1002/avr8-gnu-toolchain/bin/../lib/gcc/avr/4.7.2/../../../../avr/lib/avr6\libm.a(fp_pscB.o)
 .text          0x00000000        0x0 c:/program files (x86)/atmel/atmel toolchain/avr8 gcc/native/3.4.2.1002/avr8-gnu-toolchain/bin/../lib/gcc/avr/4.7.2/../../../../avr/lib/avr6\libm.a(fp_rempio2.o)
 .bss           0x00000000        0x0 c:/program files (x86)/atmel/atmel toolchain/avr8 gcc/native/3.4.2.1002/avr8-gnu-toolchain/bin/../lib/gcc/avr/4.7.2/../../../../avr/lib/avr6\libm.a(fp_rempio2.o)
 .text          0x00000000        0x0 c:/program files (x86)/atmel/atmel toolchain/avr8 gcc/native/3.4.2.1002/avr8-gnu-toolchain/bin/../lib/gcc/avr/4.7.2/../../../../avr/lib/avr6\libm.a(fp_round.o)
 .bss           0x00000000        0x0 c:/program files (x86)/atmel/atmel toolchain/avr8 gcc/native/3.4.2.1002/avr8-gnu-toolchain/bin/../lib/gcc/avr/4.7.2/../../../../avr/lib/avr6\libm.a(fp_round.o)
 .text          0x00000000        0x0 c:/program files (x86)/atmel/atmel toolchain/avr8 gcc/native/3.4.2.1002/avr8-gnu-toolchain/bin/../lib/gcc/avr/4.7.2/../../../../avr/lib/avr6\libm.a(fp_sinus.o)
 .bss           0x00000000        0x0 c:/program files (x86)/atmel/atmel toolchain/avr8 gcc/native/3.4.2.1002/avr8-gnu-toolchain/bin/../lib/gcc/avr/4.7.2/../../../../avr/lib/avr6\libm.a(fp_sinus.o)
 .text          0x00000000        0x0 c:/program files (x86)/atmel/atmel toolchain/avr8 gcc/native/3.4.2.1002/avr8-gnu-toolchain/bin/../lib/gcc/avr/4.7.2/../../../../avr/lib/avr6\libm.a(fp_split3.o)
 .bss           0x00000000        0x0 c:/program files (x86)/atmel/atmel toolchain/avr8 gcc/native/3.4.2.1002/avr8-gnu-toolchain/bin/../lib/gcc/avr/4.7.2/../../../../avr/lib/avr6\libm.a(fp_split3.o)
 .text          0x00000000        0x0 c:/program files (x86)/atmel/atmel toolchain/avr8 gcc/native/3.4.2.1002/avr8-gnu-toolchain/bin/../lib/gcc/avr/4.7.2/../../../../avr/lib/avr6\libm.a(fp_trunc.o)
 .bss           0x00000000        0x0 c:/program files (x86)/atmel/atmel toolchain/avr8 gcc/native/3.4.2.1002/avr8-gnu-toolchain/bin/../lib/gcc/avr/4.7.2/../../../../avr/lib/avr6\libm.a(fp_trunc.o)
 .text          0x00000000        0x0 c:/program files (x86)/atmel/atmel toolchain/avr8 gcc/native/3.4.2.1002/avr8-gnu-toolchain/bin/../lib/gcc/avr/4.7.2/../../../../avr/lib/avr6\libm.a(fp_zero.o)
 .bss           0x00000000        0x0 c:/program files (x86)/atmel/atmel toolchain/avr8 gcc/native/3.4.2.1002/avr8-gnu-toolchain/bin/../lib/gcc/avr/4.7.2/../../../../avr/lib/avr6\libm.a(fp_zero.o)
 .text          0x00000000        0x0 c:/program files (x86)/atmel/atmel toolchain/avr8 gcc/native/3.4.2.1002/avr8-gnu-toolchain/bin/../lib/gcc/avr/4.7.2/../../../../avr/lib/avr6\libm.a(gesf2.o)
 .bss           0x00000000        0x0 c:/program files (x86)/atmel/atmel toolchain/avr8 gcc/native/3.4.2.1002/avr8-gnu-toolchain/bin/../lib/gcc/avr/4.7.2/../../../../avr/lib/avr6\libm.a(gesf2.o)
 .text          0x00000000        0x0 c:/program files (x86)/atmel/atmel toolchain/avr8 gcc/native/3.4.2.1002/avr8-gnu-toolchain/bin/../lib/gcc/avr/4.7.2/../../../../avr/lib/avr6\libm.a(hypot.o)
 .bss           0x00000000        0x0 c:/program files (x86)/atmel/atmel toolchain/avr8 gcc/native/3.4.2.1002/avr8-gnu-toolchain/bin/../lib/gcc/avr/4.7.2/../../../../avr/lib/avr6\libm.a(hypot.o)
 .text          0x00000000        0x0 c:/program files (x86)/atmel/atmel toolchain/avr8 gcc/native/3.4.2.1002/avr8-gnu-toolchain/bin/../lib/gcc/avr/4.7.2/../../../../avr/lib/avr6\libm.a(inverse.o)
 .bss           0x00000000        0x0 c:/program files (x86)/atmel/atmel toolchain/avr8 gcc/native/3.4.2.1002/avr8-gnu-toolchain/bin/../lib/gcc/avr/4.7.2/../../../../avr/lib/avr6\libm.a(inverse.o)
 .text          0x00000000        0x0 c:/program files (x86)/atmel/atmel toolchain/avr8 gcc/native/3.4.2.1002/avr8-gnu-toolchain/bin/../lib/gcc/avr/4.7.2/../../../../avr/lib/avr6\libm.a(ldexp.o)
 .bss           0x00000000        0x0 c:/program files (x86)/atmel/atmel toolchain/avr8 gcc/native/3.4.2.1002/avr8-gnu-toolchain/bin/../lib/gcc/avr/4.7.2/../../../../avr/lib/avr6\libm.a(ldexp.o)
 .text          0x00000000        0x0 c:/program files (x86)/atmel/atmel toolchain/avr8 gcc/native/3.4.2.1002/avr8-gnu-toolchain/bin/../lib/gcc/avr/4.7.2/../../../../avr/lib/avr6\libm.a(lround.o)
 .bss           0x00000000        0x0 c:/program files (x86)/atmel/atmel toolchain/avr8 gcc/native/3.4.2.1002/avr8-gnu-toolchain/bin/../lib/gcc/avr/4.7.2/../../../../avr/lib/avr6\libm.a(lround.o)
 .text          0x00000000        0x0 c:/program files (x86)/atmel/atmel toolchain/avr8 gcc/native/3.4.2.1002/avr8-gnu-toolchain/bin/../lib/gcc/avr/4.7.2/../../../../avr/lib/avr6\libm.a(mulsf3.o)
 .bss           0x00000000        0x0 c:/program files (x86)/atmel/atmel toolchain/avr8 gcc/native/3.4.2.1002/avr8-gnu-toolchain/bin/../lib/gcc/avr/4.7.2/../../../../avr/lib/avr6\libm.a(mulsf3.o)
 .text          0x00000000        0x0 c:/program files (x86)/atmel/atmel toolchain/avr8 gcc/native/3.4.2.1002/avr8-gnu-toolchain/bin/../lib/gcc/avr/4.7.2/../../../../avr/lib/avr6\libm.a(mulsf3x.o)
 .bss           0x00000000        0x0 c:/program files (x86)/atmel/atmel toolchain/avr8 gcc/native/3.4.2.1002/avr8-gnu-toolchain/bin/../lib/gcc/avr/4.7.2/../../../../avr/lib/avr6\libm.a(mulsf3x.o)
 .text          0x00000000        0x0 c:/program files (x86)/atmel/atmel toolchain/avr8 gcc/native/3.4.2.1002/avr8-gnu-toolchain/bin/../lib/gcc/avr/4.7.2/../../../../avr/lib/avr6\libm.a(sin.o)
 .bss           0x00000000        0x0 c:/program files (x86)/atmel/atmel toolchain/avr8 gcc/native/3.4.2.1002/avr8-gnu-toolchain/bin/../lib/gcc/avr/4.7.2/../../../../avr/lib/avr6\libm.a(sin.o)
 .text          0x00000000        0x0 c:/program files (x86)/atmel/atmel toolchain/avr8 gcc/native/3.4.2.1002/avr8-gnu-toolchain/bin/../lib/gcc/avr/4.7.2/../../../../avr/lib/avr6\libm.a(sqrt.o)
 .bss           0x00000000        0x0 c:/program files (x86)/atmel/atmel toolchain/avr8 gcc/native/3.4.2.1002/avr8-gnu-toolchain/bin/../lib/gcc/avr/4.7.2/../../../../avr/lib/avr6\libm.a(sqrt.o)
 .text          0x00000000        0x0 c:/program files (x86)/atmel/atmel toolchain/avr8 gcc/native/3.4.2.1002/avr8-gnu-toolchain/bin/../lib/gcc/avr/4.7.2/../../../../avr/lib/avr6\libm.a(square.o)
 .bss           0x00000000        0x0 c:/program files (x86)/atmel/atmel toolchain/avr8 gcc/native/3.4.2.1002/avr8-gnu-toolchain/bin/../lib/gcc/avr/4.7.2/../../../../avr/lib/avr6\libm.a(square.o)
 .text          0x00000000        0x0 c:/program files (x86)/atmel/atmel toolchain/avr8 gcc/native/3.4.2.1002/avr8-gnu-toolchain/bin/../lib/gcc/avr/4.7.2/../../../../avr/lib/avr6\libm.a(fp_norm2.o)
 .bss           0x00000000        0x0 c:/program files (x86)/atmel/atmel toolchain/avr8 gcc/native/3.4.2.1002/avr8-gnu-toolchain/bin/../lib/gcc/avr/4.7.2/../../../../avr/lib/avr6\libm.a(fp_norm2.o)
 .text          0x00000000        0x0 c:/program files (x86)/atmel/atmel toolchain/avr8 gcc/native/3.4.2.1002/avr8-gnu-toolchain/bin/../lib/gcc/avr/4.7.2/../../../../avr/lib/avr6\libm.a(fp_powsodd.o)
 .bss           0x00000000        0x0 c:/program files (x86)/atmel/atmel toolchain/avr8 gcc/native/3.4.2.1002/avr8-gnu-toolchain/bin/../lib/gcc/avr/4.7.2/../../../../avr/lib/avr6\libm.a(fp_powsodd.o)
 .text          0x00000000        0x0 C:\Users\Shady\Documents\Atmel Studio\arduinoCoreMega\libcore.a(malloc.c.o)
 .bss           0x00000000        0x0 C:\Users\Shady\Documents\Atmel Studio\arduinoCoreMega\libcore.a(malloc.c.o)
 .text.avr-libc
                0x00000000      0x26a C:\Users\Shady\Documents\Atmel Studio\arduinoCoreMega\libcore.a(malloc.c.o)
 .data.__malloc_margin
                0x00000000        0x2 C:\Users\Shady\Documents\Atmel Studio\arduinoCoreMega\libcore.a(malloc.c.o)
 .data.__malloc_heap_start
                0x00000000        0x2 C:\Users\Shady\Documents\Atmel Studio\arduinoCoreMega\libcore.a(malloc.c.o)
 .data.__malloc_heap_end
                0x00000000        0x2 C:\Users\Shady\Documents\Atmel Studio\arduinoCoreMega\libcore.a(malloc.c.o)
 .text          0x00000000        0x0 C:\Users\Shady\Documents\Atmel Studio\arduinoCoreMega\libcore.a(wiring.c.o)
 .bss           0x00000000        0x0 C:\Users\Shady\Documents\Atmel Studio\arduinoCoreMega\libcore.a(wiring.c.o)
 .text.micros   0x00000000       0x4c C:\Users\Shady\Documents\Atmel Studio\arduinoCoreMega\libcore.a(wiring.c.o)
 .text          0x00000000        0x0 C:\Users\Shady\Documents\Atmel Studio\arduinoCoreMega\libcore.a(wiring_analog.c.o)
 .bss           0x00000000        0x0 C:\Users\Shady\Documents\Atmel Studio\arduinoCoreMega\libcore.a(wiring_analog.c.o)
 .text.analogReference
                0x00000000        0x6 C:\Users\Shady\Documents\Atmel Studio\arduinoCoreMega\libcore.a(wiring_analog.c.o)
 .text.analogRead
                0x00000000       0x68 C:\Users\Shady\Documents\Atmel Studio\arduinoCoreMega\libcore.a(wiring_analog.c.o)
 .data.analog_reference
                0x00000000        0x1 C:\Users\Shady\Documents\Atmel Studio\arduinoCoreMega\libcore.a(wiring_analog.c.o)
 .text          0x00000000        0x0 C:\Users\Shady\Documents\Atmel Studio\arduinoCoreMega\libcore.a(wiring_digital.c.o)
 .bss           0x00000000        0x0 C:\Users\Shady\Documents\Atmel Studio\arduinoCoreMega\libcore.a(wiring_digital.c.o)
 .text.digitalRead
                0x00000000       0x60 C:\Users\Shady\Documents\Atmel Studio\arduinoCoreMega\libcore.a(wiring_digital.c.o)
 .text          0x00000000        0x0 C:\Users\Shady\Documents\Atmel Studio\arduinoCoreMega\libcore.a(main.cpp.o)
 .bss           0x00000000        0x0 C:\Users\Shady\Documents\Atmel Studio\arduinoCoreMega\libcore.a(main.cpp.o)
 .text          0x00000000        0x0 C:\Users\Shady\Documents\Atmel Studio\arduinoCoreMega\libcore.a(new.cpp.o)
 .bss           0x00000000        0x0 C:\Users\Shady\Documents\Atmel Studio\arduinoCoreMega\libcore.a(new.cpp.o)
 .text.__cxa_guard_acquire
                0x00000000       0x14 C:\Users\Shady\Documents\Atmel Studio\arduinoCoreMega\libcore.a(new.cpp.o)
 .text.__cxa_guard_release
                0x00000000        0x8 C:\Users\Shady\Documents\Atmel Studio\arduinoCoreMega\libcore.a(new.cpp.o)
 .text.__cxa_guard_abort
                0x00000000        0x2 C:\Users\Shady\Documents\Atmel Studio\arduinoCoreMega\libcore.a(new.cpp.o)
 .text._ZdaPv   0x00000000        0x6 C:\Users\Shady\Documents\Atmel Studio\arduinoCoreMega\libcore.a(new.cpp.o)
 .text._ZdlPv   0x00000000        0x6 C:\Users\Shady\Documents\Atmel Studio\arduinoCoreMega\libcore.a(new.cpp.o)
 .text._Znaj    0x00000000        0x6 C:\Users\Shady\Documents\Atmel Studio\arduinoCoreMega\libcore.a(new.cpp.o)
 .text._Znwj    0x00000000        0x6 C:\Users\Shady\Documents\Atmel Studio\arduinoCoreMega\libcore.a(new.cpp.o)
 .text          0x00000000        0x0 C:\Users\Shady\Documents\Atmel Studio\arduinoCoreMega\libcore.a(Print.cpp.o)
 .bss           0x00000000        0x0 C:\Users\Shady\Documents\Atmel Studio\arduinoCoreMega\libcore.a(Print.cpp.o)
 .text._ZN5Print5printEPK19__FlashStringHelper
                0x00000000       0x46 C:\Users\Shady\Documents\Atmel Studio\arduinoCoreMega\libcore.a(Print.cpp.o)
 .text._ZN5Print5printERK9Printable
                0x00000000       0x16 C:\Users\Shady\Documents\Atmel Studio\arduinoCoreMega\libcore.a(Print.cpp.o)
 .text._ZN5Print7printlnEv
                0x00000000       0x40 C:\Users\Shady\Documents\Atmel Studio\arduinoCoreMega\libcore.a(Print.cpp.o)
 .text._ZN5Print7printlnEPK19__FlashStringHelper
                0x00000000       0x28 C:\Users\Shady\Documents\Atmel Studio\arduinoCoreMega\libcore.a(Print.cpp.o)
 .text._ZN5Print7printlnEc
                0x00000000       0x30 C:\Users\Shady\Documents\Atmel Studio\arduinoCoreMega\libcore.a(Print.cpp.o)
 .text._ZN5Print7printlnERK9Printable
                0x00000000       0x34 C:\Users\Shady\Documents\Atmel Studio\arduinoCoreMega\libcore.a(Print.cpp.o)
 .text._ZN5Print11printNumberEmh
                0x00000000       0xc8 C:\Users\Shady\Documents\Atmel Studio\arduinoCoreMega\libcore.a(Print.cpp.o)
 .text._ZN5Print5printEmi
                0x00000000       0x1e C:\Users\Shady\Documents\Atmel Studio\arduinoCoreMega\libcore.a(Print.cpp.o)
 .text._ZN5Print7printlnEmi
                0x00000000       0x28 C:\Users\Shady\Documents\Atmel Studio\arduinoCoreMega\libcore.a(Print.cpp.o)
 .text._ZN5Print5printEji
                0x00000000       0x22 C:\Users\Shady\Documents\Atmel Studio\arduinoCoreMega\libcore.a(Print.cpp.o)
 .text._ZN5Print7printlnEji
                0x00000000       0x3a C:\Users\Shady\Documents\Atmel Studio\arduinoCoreMega\libcore.a(Print.cpp.o)
 .text._ZN5Print5printEhi
                0x00000000       0x24 C:\Users\Shady\Documents\Atmel Studio\arduinoCoreMega\libcore.a(Print.cpp.o)
 .text._ZN5Print7printlnEhi
                0x00000000       0x3c C:\Users\Shady\Documents\Atmel Studio\arduinoCoreMega\libcore.a(Print.cpp.o)
 .text._ZN5Print5printEli
                0x00000000       0x80 C:\Users\Shady\Documents\Atmel Studio\arduinoCoreMega\libcore.a(Print.cpp.o)
 .text._ZN5Print7printlnEli
                0x00000000       0x28 C:\Users\Shady\Documents\Atmel Studio\arduinoCoreMega\libcore.a(Print.cpp.o)
 .text._ZN5Print5printEii
                0x00000000       0x26 C:\Users\Shady\Documents\Atmel Studio\arduinoCoreMega\libcore.a(Print.cpp.o)
 .text._ZN5Print7printlnEii
                0x00000000       0x3e C:\Users\Shady\Documents\Atmel Studio\arduinoCoreMega\libcore.a(Print.cpp.o)
 .text._ZN5Print10printFloatEdh
                0x00000000      0x1c8 C:\Users\Shady\Documents\Atmel Studio\arduinoCoreMega\libcore.a(Print.cpp.o)
 .text._ZN5Print5printEdi
                0x00000000        0x6 C:\Users\Shady\Documents\Atmel Studio\arduinoCoreMega\libcore.a(Print.cpp.o)
 .text._ZN5Print7printlnEdi
                0x00000000       0x26 C:\Users\Shady\Documents\Atmel Studio\arduinoCoreMega\libcore.a(Print.cpp.o)
 .text._ZN5Print7printlnEPKc
                0x00000000       0x26 C:\Users\Shady\Documents\Atmel Studio\arduinoCoreMega\libcore.a(Print.cpp.o)
 .text._ZN5Print5printERK6String
                0x00000000       0x66 C:\Users\Shady\Documents\Atmel Studio\arduinoCoreMega\libcore.a(Print.cpp.o)
 .text._ZN5Print7printlnERK6String
                0x00000000       0x28 C:\Users\Shady\Documents\Atmel Studio\arduinoCoreMega\libcore.a(Print.cpp.o)
 .rodata._ZTV5Print
                0x00000000        0x8 C:\Users\Shady\Documents\Atmel Studio\arduinoCoreMega\libcore.a(Print.cpp.o)
 .text          0x00000000        0x0 C:\Users\Shady\Documents\Atmel Studio\arduinoCoreMega\libcore.a(Tone.cpp.o)
 .bss           0x00000000        0x0 C:\Users\Shady\Documents\Atmel Studio\arduinoCoreMega\libcore.a(Tone.cpp.o)
 .text          0x00000000        0x0 C:\Users\Shady\Documents\Atmel Studio\arduinoCoreMega\libcore.a(WString.cpp.o)
 .bss           0x00000000        0x0 C:\Users\Shady\Documents\Atmel Studio\arduinoCoreMega\libcore.a(WString.cpp.o)
 .text._ZNK6String6charAtEj
                0x00000000       0x22 C:\Users\Shady\Documents\Atmel Studio\arduinoCoreMega\libcore.a(WString.cpp.o)
 .text._ZN6String9setCharAtEjc
                0x00000000       0x1a C:\Users\Shady\Documents\Atmel Studio\arduinoCoreMega\libcore.a(WString.cpp.o)
 .text._ZN6StringixEj
                0x00000000       0x2a C:\Users\Shady\Documents\Atmel Studio\arduinoCoreMega\libcore.a(WString.cpp.o)
 .text._ZNK6StringixEj
                0x00000000       0x22 C:\Users\Shady\Documents\Atmel Studio\arduinoCoreMega\libcore.a(WString.cpp.o)
 .text._ZN6String7replaceEcc
                0x00000000       0x1e C:\Users\Shady\Documents\Atmel Studio\arduinoCoreMega\libcore.a(WString.cpp.o)
 .text._ZNK6String5toIntEv
                0x00000000       0x22 C:\Users\Shady\Documents\Atmel Studio\arduinoCoreMega\libcore.a(WString.cpp.o)
 .text._ZN6String4trimEv
                0x00000000       0xb6 C:\Users\Shady\Documents\Atmel Studio\arduinoCoreMega\libcore.a(WString.cpp.o)
 .text._ZN6String11toUpperCaseEv
                0x00000000       0x28 C:\Users\Shady\Documents\Atmel Studio\arduinoCoreMega\libcore.a(WString.cpp.o)
 .text._ZN6String11toLowerCaseEv
                0x00000000       0x28 C:\Users\Shady\Documents\Atmel Studio\arduinoCoreMega\libcore.a(WString.cpp.o)
 .text._ZNK6String16equalsIgnoreCaseERKS_
                0x00000000       0x78 C:\Users\Shady\Documents\Atmel Studio\arduinoCoreMega\libcore.a(WString.cpp.o)
 .text._ZNK6String11lastIndexOfERKS_j
                0x00000000       0x9c C:\Users\Shady\Documents\Atmel Studio\arduinoCoreMega\libcore.a(WString.cpp.o)
 .text._ZNK6String11lastIndexOfERKS_
                0x00000000       0x1c C:\Users\Shady\Documents\Atmel Studio\arduinoCoreMega\libcore.a(WString.cpp.o)
 .text._ZNK6String7indexOfERKS_j
                0x00000000       0x3c C:\Users\Shady\Documents\Atmel Studio\arduinoCoreMega\libcore.a(WString.cpp.o)
 .text._ZNK6String7indexOfERKS_
                0x00000000        0xa C:\Users\Shady\Documents\Atmel Studio\arduinoCoreMega\libcore.a(WString.cpp.o)
 .text._ZNK6String11lastIndexOfEcj
                0x00000000       0x6e C:\Users\Shady\Documents\Atmel Studio\arduinoCoreMega\libcore.a(WString.cpp.o)
 .text._ZNK6String11lastIndexOfEc
                0x00000000       0x10 C:\Users\Shady\Documents\Atmel Studio\arduinoCoreMega\libcore.a(WString.cpp.o)
 .text._ZNK6String7indexOfEcj
                0x00000000       0x3c C:\Users\Shady\Documents\Atmel Studio\arduinoCoreMega\libcore.a(WString.cpp.o)
 .text._ZNK6String7indexOfEc
                0x00000000        0xa C:\Users\Shady\Documents\Atmel Studio\arduinoCoreMega\libcore.a(WString.cpp.o)
 .text._ZNK6String8getBytesEPhjj
                0x00000000       0x5a C:\Users\Shady\Documents\Atmel Studio\arduinoCoreMega\libcore.a(WString.cpp.o)
 .text._ZNK6String8endsWithERKS_
                0x00000000       0x44 C:\Users\Shady\Documents\Atmel Studio\arduinoCoreMega\libcore.a(WString.cpp.o)
 .text._ZNK6String6equalsEPKc
                0x00000000       0x46 C:\Users\Shady\Documents\Atmel Studio\arduinoCoreMega\libcore.a(WString.cpp.o)
 .text._ZNK6String9compareToERKS_
                0x00000000       0x66 C:\Users\Shady\Documents\Atmel Studio\arduinoCoreMega\libcore.a(WString.cpp.o)
 .text._ZNK6StringgeERKS_
                0x00000000       0x10 C:\Users\Shady\Documents\Atmel Studio\arduinoCoreMega\libcore.a(WString.cpp.o)
 .text._ZNK6StringleERKS_
                0x00000000       0x12 C:\Users\Shady\Documents\Atmel Studio\arduinoCoreMega\libcore.a(WString.cpp.o)
 .text._ZNK6StringgtERKS_
                0x00000000       0x12 C:\Users\Shady\Documents\Atmel Studio\arduinoCoreMega\libcore.a(WString.cpp.o)
 .text._ZNK6StringltERKS_
                0x00000000        0xe C:\Users\Shady\Documents\Atmel Studio\arduinoCoreMega\libcore.a(WString.cpp.o)
 .text._ZNK6String6equalsERKS_
                0x00000000       0x2c C:\Users\Shady\Documents\Atmel Studio\arduinoCoreMega\libcore.a(WString.cpp.o)
 .text._ZNK6String10startsWithERKS_j
                0x00000000       0x46 C:\Users\Shady\Documents\Atmel Studio\arduinoCoreMega\libcore.a(WString.cpp.o)
 .text._ZNK6String10startsWithERKS_
                0x00000000       0x26 C:\Users\Shady\Documents\Atmel Studio\arduinoCoreMega\libcore.a(WString.cpp.o)
 .text._ZN6String12changeBufferEj
                0x00000000       0x34 C:\Users\Shady\Documents\Atmel Studio\arduinoCoreMega\libcore.a(WString.cpp.o)
 .text._ZN6String7replaceERKS_S1_
                0x00000000      0x20a C:\Users\Shady\Documents\Atmel Studio\arduinoCoreMega\libcore.a(WString.cpp.o)
 .text._ZN6String7reserveEj
                0x00000000       0x38 C:\Users\Shady\Documents\Atmel Studio\arduinoCoreMega\libcore.a(WString.cpp.o)
 .text._ZN6String6concatEPKcj
                0x00000000       0x5a C:\Users\Shady\Documents\Atmel Studio\arduinoCoreMega\libcore.a(WString.cpp.o)
 .text._ZN6String6concatEm
                0x00000000       0x64 C:\Users\Shady\Documents\Atmel Studio\arduinoCoreMega\libcore.a(WString.cpp.o)
 .text._ZN6String6concatEl
                0x00000000       0x64 C:\Users\Shady\Documents\Atmel Studio\arduinoCoreMega\libcore.a(WString.cpp.o)
 .text._ZN6String6concatEj
                0x00000000       0x5a C:\Users\Shady\Documents\Atmel Studio\arduinoCoreMega\libcore.a(WString.cpp.o)
 .text._ZN6String6concatEi
                0x00000000       0x62 C:\Users\Shady\Documents\Atmel Studio\arduinoCoreMega\libcore.a(WString.cpp.o)
 .text._ZN6String6concatEh
                0x00000000       0x58 C:\Users\Shady\Documents\Atmel Studio\arduinoCoreMega\libcore.a(WString.cpp.o)
 .text._ZN6String6concatEc
                0x00000000       0x28 C:\Users\Shady\Documents\Atmel Studio\arduinoCoreMega\libcore.a(WString.cpp.o)
 .text._ZN6String6concatEPKc
                0x00000000       0x20 C:\Users\Shady\Documents\Atmel Studio\arduinoCoreMega\libcore.a(WString.cpp.o)
 .text._ZN6String6concatERKS_
                0x00000000       0x10 C:\Users\Shady\Documents\Atmel Studio\arduinoCoreMega\libcore.a(WString.cpp.o)
 .text._ZN6String10invalidateEv
                0x00000000       0x24 C:\Users\Shady\Documents\Atmel Studio\arduinoCoreMega\libcore.a(WString.cpp.o)
 .text._ZplRK15StringSumHelperm
                0x00000000       0x22 C:\Users\Shady\Documents\Atmel Studio\arduinoCoreMega\libcore.a(WString.cpp.o)
 .text._ZplRK15StringSumHelperl
                0x00000000       0x22 C:\Users\Shady\Documents\Atmel Studio\arduinoCoreMega\libcore.a(WString.cpp.o)
 .text._ZplRK15StringSumHelperj
                0x00000000       0x22 C:\Users\Shady\Documents\Atmel Studio\arduinoCoreMega\libcore.a(WString.cpp.o)
 .text._ZplRK15StringSumHelperi
                0x00000000       0x22 C:\Users\Shady\Documents\Atmel Studio\arduinoCoreMega\libcore.a(WString.cpp.o)
 .text._ZplRK15StringSumHelperh
                0x00000000       0x22 C:\Users\Shady\Documents\Atmel Studio\arduinoCoreMega\libcore.a(WString.cpp.o)
 .text._ZplRK15StringSumHelperc
                0x00000000       0x22 C:\Users\Shady\Documents\Atmel Studio\arduinoCoreMega\libcore.a(WString.cpp.o)
 .text._ZplRK15StringSumHelperPKc
                0x00000000       0x38 C:\Users\Shady\Documents\Atmel Studio\arduinoCoreMega\libcore.a(WString.cpp.o)
 .text._ZplRK15StringSumHelperRK6String
                0x00000000       0x2c C:\Users\Shady\Documents\Atmel Studio\arduinoCoreMega\libcore.a(WString.cpp.o)
 .text._ZN6String4copyEPKcj
                0x00000000       0x42 C:\Users\Shady\Documents\Atmel Studio\arduinoCoreMega\libcore.a(WString.cpp.o)
 .text._ZN6StringC1EPKc
                0x00000000       0x34 C:\Users\Shady\Documents\Atmel Studio\arduinoCoreMega\libcore.a(WString.cpp.o)
 .text._ZN6StringC2EPKc
                0x00000000       0x34 C:\Users\Shady\Documents\Atmel Studio\arduinoCoreMega\libcore.a(WString.cpp.o)
 .text._ZN6StringaSEPKc
                0x00000000       0x32 C:\Users\Shady\Documents\Atmel Studio\arduinoCoreMega\libcore.a(WString.cpp.o)
 .text._ZN6StringC1Emh
                0x00000000       0x64 C:\Users\Shady\Documents\Atmel Studio\arduinoCoreMega\libcore.a(WString.cpp.o)
 .text._ZN6StringC2Emh
                0x00000000       0x64 C:\Users\Shady\Documents\Atmel Studio\arduinoCoreMega\libcore.a(WString.cpp.o)
 .text._ZN6StringC1Elh
                0x00000000       0x64 C:\Users\Shady\Documents\Atmel Studio\arduinoCoreMega\libcore.a(WString.cpp.o)
 .text._ZN6StringC2Elh
                0x00000000       0x64 C:\Users\Shady\Documents\Atmel Studio\arduinoCoreMega\libcore.a(WString.cpp.o)
 .text._ZN6StringC1Ejh
                0x00000000       0x62 C:\Users\Shady\Documents\Atmel Studio\arduinoCoreMega\libcore.a(WString.cpp.o)
 .text._ZN6StringC2Ejh
                0x00000000       0x62 C:\Users\Shady\Documents\Atmel Studio\arduinoCoreMega\libcore.a(WString.cpp.o)
 .text._ZN6StringC1Eih
                0x00000000       0x62 C:\Users\Shady\Documents\Atmel Studio\arduinoCoreMega\libcore.a(WString.cpp.o)
 .text._ZN6StringC2Eih
                0x00000000       0x62 C:\Users\Shady\Documents\Atmel Studio\arduinoCoreMega\libcore.a(WString.cpp.o)
 .text._ZN6StringC1Ehh
                0x00000000       0x64 C:\Users\Shady\Documents\Atmel Studio\arduinoCoreMega\libcore.a(WString.cpp.o)
 .text._ZN6StringC2Ehh
                0x00000000       0x64 C:\Users\Shady\Documents\Atmel Studio\arduinoCoreMega\libcore.a(WString.cpp.o)
 .text._ZN6StringC1Ec
                0x00000000       0x34 C:\Users\Shady\Documents\Atmel Studio\arduinoCoreMega\libcore.a(WString.cpp.o)
 .text._ZN6StringC2Ec
                0x00000000       0x34 C:\Users\Shady\Documents\Atmel Studio\arduinoCoreMega\libcore.a(WString.cpp.o)
 .text._ZNK6String9substringEjj
                0x00000000       0x8e C:\Users\Shady\Documents\Atmel Studio\arduinoCoreMega\libcore.a(WString.cpp.o)
 .text._ZNK6String9substringEj
                0x00000000       0x18 C:\Users\Shady\Documents\Atmel Studio\arduinoCoreMega\libcore.a(WString.cpp.o)
 .text._ZN6StringaSERKS_
                0x00000000       0x2e C:\Users\Shady\Documents\Atmel Studio\arduinoCoreMega\libcore.a(WString.cpp.o)
 .text._ZN6StringC1ERKS_
                0x00000000       0x16 C:\Users\Shady\Documents\Atmel Studio\arduinoCoreMega\libcore.a(WString.cpp.o)
 .text._ZN6StringC2ERKS_
                0x00000000       0x16 C:\Users\Shady\Documents\Atmel Studio\arduinoCoreMega\libcore.a(WString.cpp.o)
 .text._ZN6StringD1Ev
                0x00000000        0xc C:\Users\Shady\Documents\Atmel Studio\arduinoCoreMega\libcore.a(WString.cpp.o)
 .text._ZN6StringD2Ev
                0x00000000        0xc C:\Users\Shady\Documents\Atmel Studio\arduinoCoreMega\libcore.a(WString.cpp.o)
 .bss._ZZN6StringixEjE19dummy_writable_char
                0x00000000        0x1 C:\Users\Shady\Documents\Atmel Studio\arduinoCoreMega\libcore.a(WString.cpp.o)
 .text          0x00000000        0x0 C:\Users\Shady\Documents\Atmel Studio\arduinoCoreMega\libcore.a(realloc.c.o)
 .bss           0x00000000        0x0 C:\Users\Shady\Documents\Atmel Studio\arduinoCoreMega\libcore.a(realloc.c.o)
 .text.avr-libc
                0x00000000      0x1c2 C:\Users\Shady\Documents\Atmel Studio\arduinoCoreMega\libcore.a(realloc.c.o)
 .text          0x00000000        0x0 c:/program files (x86)/atmel/atmel toolchain/avr8 gcc/native/3.4.2.1002/avr8-gnu-toolchain/bin/../lib/gcc/avr/4.7.2/../../../../avr/lib/avr6\libm.a(unordsf2.o)
 .bss           0x00000000        0x0 c:/program files (x86)/atmel/atmel toolchain/avr8 gcc/native/3.4.2.1002/avr8-gnu-toolchain/bin/../lib/gcc/avr/4.7.2/../../../../avr/lib/avr6\libm.a(unordsf2.o)
 .text.avr-libc.fplib
                0x00000000        0x8 c:/program files (x86)/atmel/atmel toolchain/avr8 gcc/native/3.4.2.1002/avr8-gnu-toolchain/bin/../lib/gcc/avr/4.7.2/../../../../avr/lib/avr6\libm.a(unordsf2.o)
 .text          0x00000000        0x0 c:/program files (x86)/atmel/atmel toolchain/avr8 gcc/native/3.4.2.1002/avr8-gnu-toolchain/bin/../lib/gcc/avr/4.7.2/avr6\libgcc.a(_mulsi3.o)
 .bss           0x00000000        0x0 c:/program files (x86)/atmel/atmel toolchain/avr8 gcc/native/3.4.2.1002/avr8-gnu-toolchain/bin/../lib/gcc/avr/4.7.2/avr6\libgcc.a(_mulsi3.o)
 .text.libgcc.div
                0x00000000        0x0 c:/program files (x86)/atmel/atmel toolchain/avr8 gcc/native/3.4.2.1002/avr8-gnu-toolchain/bin/../lib/gcc/avr/4.7.2/avr6\libgcc.a(_mulsi3.o)
 .text.libgcc   0x00000000        0x0 c:/program files (x86)/atmel/atmel toolchain/avr8 gcc/native/3.4.2.1002/avr8-gnu-toolchain/bin/../lib/gcc/avr/4.7.2/avr6\libgcc.a(_mulsi3.o)
 .text.libgcc.prologue
                0x00000000        0x0 c:/program files (x86)/atmel/atmel toolchain/avr8 gcc/native/3.4.2.1002/avr8-gnu-toolchain/bin/../lib/gcc/avr/4.7.2/avr6\libgcc.a(_mulsi3.o)
 .text.libgcc.builtins
                0x00000000        0x0 c:/program files (x86)/atmel/atmel toolchain/avr8 gcc/native/3.4.2.1002/avr8-gnu-toolchain/bin/../lib/gcc/avr/4.7.2/avr6\libgcc.a(_mulsi3.o)
 .text.libgcc.fmul
                0x00000000        0x0 c:/program files (x86)/atmel/atmel toolchain/avr8 gcc/native/3.4.2.1002/avr8-gnu-toolchain/bin/../lib/gcc/avr/4.7.2/avr6\libgcc.a(_mulsi3.o)
 .text          0x00000000        0x0 c:/program files (x86)/atmel/atmel toolchain/avr8 gcc/native/3.4.2.1002/avr8-gnu-toolchain/bin/../lib/gcc/avr/4.7.2/avr6\libgcc.a(_divmodhi4.o)
 .bss           0x00000000        0x0 c:/program files (x86)/atmel/atmel toolchain/avr8 gcc/native/3.4.2.1002/avr8-gnu-toolchain/bin/../lib/gcc/avr/4.7.2/avr6\libgcc.a(_divmodhi4.o)
 .text.libgcc.mul
                0x00000000        0x0 c:/program files (x86)/atmel/atmel toolchain/avr8 gcc/native/3.4.2.1002/avr8-gnu-toolchain/bin/../lib/gcc/avr/4.7.2/avr6\libgcc.a(_divmodhi4.o)
 .text.libgcc   0x00000000        0x0 c:/program files (x86)/atmel/atmel toolchain/avr8 gcc/native/3.4.2.1002/avr8-gnu-toolchain/bin/../lib/gcc/avr/4.7.2/avr6\libgcc.a(_divmodhi4.o)
 .text.libgcc.prologue
                0x00000000        0x0 c:/program files (x86)/atmel/atmel toolchain/avr8 gcc/native/3.4.2.1002/avr8-gnu-toolchain/bin/../lib/gcc/avr/4.7.2/avr6\libgcc.a(_divmodhi4.o)
 .text.libgcc.builtins
                0x00000000        0x0 c:/program files (x86)/atmel/atmel toolchain/avr8 gcc/native/3.4.2.1002/avr8-gnu-toolchain/bin/../lib/gcc/avr/4.7.2/avr6\libgcc.a(_divmodhi4.o)
 .text.libgcc.fmul
                0x00000000        0x0 c:/program files (x86)/atmel/atmel toolchain/avr8 gcc/native/3.4.2.1002/avr8-gnu-toolchain/bin/../lib/gcc/avr/4.7.2/avr6\libgcc.a(_divmodhi4.o)
 .text          0x00000000        0x0 c:/program files (x86)/atmel/atmel toolchain/avr8 gcc/native/3.4.2.1002/avr8-gnu-toolchain/bin/../lib/gcc/avr/4.7.2/avr6\libgcc.a(_udivmodsi4.o)
 .bss           0x00000000        0x0 c:/program files (x86)/atmel/atmel toolchain/avr8 gcc/native/3.4.2.1002/avr8-gnu-toolchain/bin/../lib/gcc/avr/4.7.2/avr6\libgcc.a(_udivmodsi4.o)
 .text.libgcc.mul
                0x00000000        0x0 c:/program files (x86)/atmel/atmel toolchain/avr8 gcc/native/3.4.2.1002/avr8-gnu-toolchain/bin/../lib/gcc/avr/4.7.2/avr6\libgcc.a(_udivmodsi4.o)
 .text.libgcc   0x00000000        0x0 c:/program files (x86)/atmel/atmel toolchain/avr8 gcc/native/3.4.2.1002/avr8-gnu-toolchain/bin/../lib/gcc/avr/4.7.2/avr6\libgcc.a(_udivmodsi4.o)
 .text.libgcc.prologue
                0x00000000        0x0 c:/program files (x86)/atmel/atmel toolchain/avr8 gcc/native/3.4.2.1002/avr8-gnu-toolchain/bin/../lib/gcc/avr/4.7.2/avr6\libgcc.a(_udivmodsi4.o)
 .text.libgcc.builtins
                0x00000000        0x0 c:/program files (x86)/atmel/atmel toolchain/avr8 gcc/native/3.4.2.1002/avr8-gnu-toolchain/bin/../lib/gcc/avr/4.7.2/avr6\libgcc.a(_udivmodsi4.o)
 .text.libgcc.fmul
                0x00000000        0x0 c:/program files (x86)/atmel/atmel toolchain/avr8 gcc/native/3.4.2.1002/avr8-gnu-toolchain/bin/../lib/gcc/avr/4.7.2/avr6\libgcc.a(_udivmodsi4.o)
 .text          0x00000000        0x0 c:/program files (x86)/atmel/atmel toolchain/avr8 gcc/native/3.4.2.1002/avr8-gnu-toolchain/bin/../lib/gcc/avr/4.7.2/avr6\libgcc.a(_divmodsi4.o)
 .bss           0x00000000        0x0 c:/program files (x86)/atmel/atmel toolchain/avr8 gcc/native/3.4.2.1002/avr8-gnu-toolchain/bin/../lib/gcc/avr/4.7.2/avr6\libgcc.a(_divmodsi4.o)
 .text.libgcc.mul
                0x00000000        0x0 c:/program files (x86)/atmel/atmel toolchain/avr8 gcc/native/3.4.2.1002/avr8-gnu-toolchain/bin/../lib/gcc/avr/4.7.2/avr6\libgcc.a(_divmodsi4.o)
 .text.libgcc   0x00000000        0x0 c:/program files (x86)/atmel/atmel toolchain/avr8 gcc/native/3.4.2.1002/avr8-gnu-toolchain/bin/../lib/gcc/avr/4.7.2/avr6\libgcc.a(_divmodsi4.o)
 .text.libgcc.prologue
                0x00000000        0x0 c:/program files (x86)/atmel/atmel toolchain/avr8 gcc/native/3.4.2.1002/avr8-gnu-toolchain/bin/../lib/gcc/avr/4.7.2/avr6\libgcc.a(_divmodsi4.o)
 .text.libgcc.builtins
                0x00000000        0x0 c:/program files (x86)/atmel/atmel toolchain/avr8 gcc/native/3.4.2.1002/avr8-gnu-toolchain/bin/../lib/gcc/avr/4.7.2/avr6\libgcc.a(_divmodsi4.o)
 .text.libgcc.fmul
                0x00000000        0x0 c:/program files (x86)/atmel/atmel toolchain/avr8 gcc/native/3.4.2.1002/avr8-gnu-toolchain/bin/../lib/gcc/avr/4.7.2/avr6\libgcc.a(_divmodsi4.o)
 .text          0x00000000        0x0 c:/program files (x86)/atmel/atmel toolchain/avr8 gcc/native/3.4.2.1002/avr8-gnu-toolchain/bin/../lib/gcc/avr/4.7.2/avr6\libgcc.a(_exit.o)
 .bss           0x00000000        0x0 c:/program files (x86)/atmel/atmel toolchain/avr8 gcc/native/3.4.2.1002/avr8-gnu-toolchain/bin/../lib/gcc/avr/4.7.2/avr6\libgcc.a(_exit.o)
 .text.libgcc.mul
                0x00000000        0x0 c:/program files (x86)/atmel/atmel toolchain/avr8 gcc/native/3.4.2.1002/avr8-gnu-toolchain/bin/../lib/gcc/avr/4.7.2/avr6\libgcc.a(_exit.o)
 .text.libgcc.div
                0x00000000        0x0 c:/program files (x86)/atmel/atmel toolchain/avr8 gcc/native/3.4.2.1002/avr8-gnu-toolchain/bin/../lib/gcc/avr/4.7.2/avr6\libgcc.a(_exit.o)
 .text.libgcc   0x00000000        0x0 c:/program files (x86)/atmel/atmel toolchain/avr8 gcc/native/3.4.2.1002/avr8-gnu-toolchain/bin/../lib/gcc/avr/4.7.2/avr6\libgcc.a(_exit.o)
 .text.libgcc.prologue
                0x00000000        0x0 c:/program files (x86)/atmel/atmel toolchain/avr8 gcc/native/3.4.2.1002/avr8-gnu-toolchain/bin/../lib/gcc/avr/4.7.2/avr6\libgcc.a(_exit.o)
 .text.libgcc.builtins
                0x00000000        0x0 c:/program files (x86)/atmel/atmel toolchain/avr8 gcc/native/3.4.2.1002/avr8-gnu-toolchain/bin/../lib/gcc/avr/4.7.2/avr6\libgcc.a(_exit.o)
 .text.libgcc.fmul
                0x00000000        0x0 c:/program files (x86)/atmel/atmel toolchain/avr8 gcc/native/3.4.2.1002/avr8-gnu-toolchain/bin/../lib/gcc/avr/4.7.2/avr6\libgcc.a(_exit.o)
 .text          0x00000000        0x0 c:/program files (x86)/atmel/atmel toolchain/avr8 gcc/native/3.4.2.1002/avr8-gnu-toolchain/bin/../lib/gcc/avr/4.7.2/avr6\libgcc.a(_copy_data.o)
 .bss           0x00000000        0x0 c:/program files (x86)/atmel/atmel toolchain/avr8 gcc/native/3.4.2.1002/avr8-gnu-toolchain/bin/../lib/gcc/avr/4.7.2/avr6\libgcc.a(_copy_data.o)
 .text.libgcc.mul
                0x00000000        0x0 c:/program files (x86)/atmel/atmel toolchain/avr8 gcc/native/3.4.2.1002/avr8-gnu-toolchain/bin/../lib/gcc/avr/4.7.2/avr6\libgcc.a(_copy_data.o)
 .text.libgcc.div
                0x00000000        0x0 c:/program files (x86)/atmel/atmel toolchain/avr8 gcc/native/3.4.2.1002/avr8-gnu-toolchain/bin/../lib/gcc/avr/4.7.2/avr6\libgcc.a(_copy_data.o)
 .text.libgcc   0x00000000        0x0 c:/program files (x86)/atmel/atmel toolchain/avr8 gcc/native/3.4.2.1002/avr8-gnu-toolchain/bin/../lib/gcc/avr/4.7.2/avr6\libgcc.a(_copy_data.o)
 .text.libgcc.prologue
                0x00000000        0x0 c:/program files (x86)/atmel/atmel toolchain/avr8 gcc/native/3.4.2.1002/avr8-gnu-toolchain/bin/../lib/gcc/avr/4.7.2/avr6\libgcc.a(_copy_data.o)
 .text.libgcc.builtins
                0x00000000        0x0 c:/program files (x86)/atmel/atmel toolchain/avr8 gcc/native/3.4.2.1002/avr8-gnu-toolchain/bin/../lib/gcc/avr/4.7.2/avr6\libgcc.a(_copy_data.o)
 .text.libgcc.fmul
                0x00000000        0x0 c:/program files (x86)/atmel/atmel toolchain/avr8 gcc/native/3.4.2.1002/avr8-gnu-toolchain/bin/../lib/gcc/avr/4.7.2/avr6\libgcc.a(_copy_data.o)
 .text          0x00000000        0x0 c:/program files (x86)/atmel/atmel toolchain/avr8 gcc/native/3.4.2.1002/avr8-gnu-toolchain/bin/../lib/gcc/avr/4.7.2/avr6\libgcc.a(_clear_bss.o)
 .bss           0x00000000        0x0 c:/program files (x86)/atmel/atmel toolchain/avr8 gcc/native/3.4.2.1002/avr8-gnu-toolchain/bin/../lib/gcc/avr/4.7.2/avr6\libgcc.a(_clear_bss.o)
 .text.libgcc.mul
                0x00000000        0x0 c:/program files (x86)/atmel/atmel toolchain/avr8 gcc/native/3.4.2.1002/avr8-gnu-toolchain/bin/../lib/gcc/avr/4.7.2/avr6\libgcc.a(_clear_bss.o)
 .text.libgcc.div
                0x00000000        0x0 c:/program files (x86)/atmel/atmel toolchain/avr8 gcc/native/3.4.2.1002/avr8-gnu-toolchain/bin/../lib/gcc/avr/4.7.2/avr6\libgcc.a(_clear_bss.o)
 .text.libgcc   0x00000000        0x0 c:/program files (x86)/atmel/atmel toolchain/avr8 gcc/native/3.4.2.1002/avr8-gnu-toolchain/bin/../lib/gcc/avr/4.7.2/avr6\libgcc.a(_clear_bss.o)
 .text.libgcc.prologue
                0x00000000        0x0 c:/program files (x86)/atmel/atmel toolchain/avr8 gcc/native/3.4.2.1002/avr8-gnu-toolchain/bin/../lib/gcc/avr/4.7.2/avr6\libgcc.a(_clear_bss.o)
 .text.libgcc.builtins
                0x00000000        0x0 c:/program files (x86)/atmel/atmel toolchain/avr8 gcc/native/3.4.2.1002/avr8-gnu-toolchain/bin/../lib/gcc/avr/4.7.2/avr6\libgcc.a(_clear_bss.o)
 .text.libgcc.fmul
                0x00000000        0x0 c:/program files (x86)/atmel/atmel toolchain/avr8 gcc/native/3.4.2.1002/avr8-gnu-toolchain/bin/../lib/gcc/avr/4.7.2/avr6\libgcc.a(_clear_bss.o)
 .text          0x00000000        0x0 c:/program files (x86)/atmel/atmel toolchain/avr8 gcc/native/3.4.2.1002/avr8-gnu-toolchain/bin/../lib/gcc/avr/4.7.2/avr6\libgcc.a(_ctors.o)
 .bss           0x00000000        0x0 c:/program files (x86)/atmel/atmel toolchain/avr8 gcc/native/3.4.2.1002/avr8-gnu-toolchain/bin/../lib/gcc/avr/4.7.2/avr6\libgcc.a(_ctors.o)
 .text.libgcc.mul
                0x00000000        0x0 c:/program files (x86)/atmel/atmel toolchain/avr8 gcc/native/3.4.2.1002/avr8-gnu-toolchain/bin/../lib/gcc/avr/4.7.2/avr6\libgcc.a(_ctors.o)
 .text.libgcc.div
                0x00000000        0x0 c:/program files (x86)/atmel/atmel toolchain/avr8 gcc/native/3.4.2.1002/avr8-gnu-toolchain/bin/../lib/gcc/avr/4.7.2/avr6\libgcc.a(_ctors.o)
 .text.libgcc   0x00000000        0x0 c:/program files (x86)/atmel/atmel toolchain/avr8 gcc/native/3.4.2.1002/avr8-gnu-toolchain/bin/../lib/gcc/avr/4.7.2/avr6\libgcc.a(_ctors.o)
 .text.libgcc.prologue
                0x00000000        0x0 c:/program files (x86)/atmel/atmel toolchain/avr8 gcc/native/3.4.2.1002/avr8-gnu-toolchain/bin/../lib/gcc/avr/4.7.2/avr6\libgcc.a(_ctors.o)
 .text.libgcc.builtins
                0x00000000        0x0 c:/program files (x86)/atmel/atmel toolchain/avr8 gcc/native/3.4.2.1002/avr8-gnu-toolchain/bin/../lib/gcc/avr/4.7.2/avr6\libgcc.a(_ctors.o)
 .text.libgcc.fmul
                0x00000000        0x0 c:/program files (x86)/atmel/atmel toolchain/avr8 gcc/native/3.4.2.1002/avr8-gnu-toolchain/bin/../lib/gcc/avr/4.7.2/avr6\libgcc.a(_ctors.o)
 .text          0x00000000        0x0 c:/program files (x86)/atmel/atmel toolchain/avr8 gcc/native/3.4.2.1002/avr8-gnu-toolchain/bin/../lib/gcc/avr/4.7.2/avr6\libgcc.a(_dtors.o)
 .bss           0x00000000        0x0 c:/program files (x86)/atmel/atmel toolchain/avr8 gcc/native/3.4.2.1002/avr8-gnu-toolchain/bin/../lib/gcc/avr/4.7.2/avr6\libgcc.a(_dtors.o)
 .text.libgcc.mul
                0x00000000        0x0 c:/program files (x86)/atmel/atmel toolchain/avr8 gcc/native/3.4.2.1002/avr8-gnu-toolchain/bin/../lib/gcc/avr/4.7.2/avr6\libgcc.a(_dtors.o)
 .text.libgcc.div
                0x00000000        0x0 c:/program files (x86)/atmel/atmel toolchain/avr8 gcc/native/3.4.2.1002/avr8-gnu-toolchain/bin/../lib/gcc/avr/4.7.2/avr6\libgcc.a(_dtors.o)
 .text.libgcc   0x00000000        0x0 c:/program files (x86)/atmel/atmel toolchain/avr8 gcc/native/3.4.2.1002/avr8-gnu-toolchain/bin/../lib/gcc/avr/4.7.2/avr6\libgcc.a(_dtors.o)
 .text.libgcc.prologue
                0x00000000        0x0 c:/program files (x86)/atmel/atmel toolchain/avr8 gcc/native/3.4.2.1002/avr8-gnu-toolchain/bin/../lib/gcc/avr/4.7.2/avr6\libgcc.a(_dtors.o)
 .text.libgcc.builtins
                0x00000000        0x0 c:/program files (x86)/atmel/atmel toolchain/avr8 gcc/native/3.4.2.1002/avr8-gnu-toolchain/bin/../lib/gcc/avr/4.7.2/avr6\libgcc.a(_dtors.o)
 .text.libgcc.fmul
                0x00000000        0x0 c:/program files (x86)/atmel/atmel toolchain/avr8 gcc/native/3.4.2.1002/avr8-gnu-toolchain/bin/../lib/gcc/avr/4.7.2/avr6\libgcc.a(_dtors.o)
 .text          0x00000000        0x0 c:/program files (x86)/atmel/atmel toolchain/avr8 gcc/native/3.4.2.1002/avr8-gnu-toolchain/bin/../lib/gcc/avr/4.7.2/avr6\libgcc.a(_umulhisi3.o)
 .bss           0x00000000        0x0 c:/program files (x86)/atmel/atmel toolchain/avr8 gcc/native/3.4.2.1002/avr8-gnu-toolchain/bin/../lib/gcc/avr/4.7.2/avr6\libgcc.a(_umulhisi3.o)
 .text.libgcc.div
                0x00000000        0x0 c:/program files (x86)/atmel/atmel toolchain/avr8 gcc/native/3.4.2.1002/avr8-gnu-toolchain/bin/../lib/gcc/avr/4.7.2/avr6\libgcc.a(_umulhisi3.o)
 .text.libgcc   0x00000000        0x0 c:/program files (x86)/atmel/atmel toolchain/avr8 gcc/native/3.4.2.1002/avr8-gnu-toolchain/bin/../lib/gcc/avr/4.7.2/avr6\libgcc.a(_umulhisi3.o)
 .text.libgcc.prologue
                0x00000000        0x0 c:/program files (x86)/atmel/atmel toolchain/avr8 gcc/native/3.4.2.1002/avr8-gnu-toolchain/bin/../lib/gcc/avr/4.7.2/avr6\libgcc.a(_umulhisi3.o)
 .text.libgcc.builtins
                0x00000000        0x0 c:/program files (x86)/atmel/atmel toolchain/avr8 gcc/native/3.4.2.1002/avr8-gnu-toolchain/bin/../lib/gcc/avr/4.7.2/avr6\libgcc.a(_umulhisi3.o)
 .text.libgcc.fmul
                0x00000000        0x0 c:/program files (x86)/atmel/atmel toolchain/avr8 gcc/native/3.4.2.1002/avr8-gnu-toolchain/bin/../lib/gcc/avr/4.7.2/avr6\libgcc.a(_umulhisi3.o)
 .text          0x00000000        0x0 c:/program files (x86)/atmel/atmel toolchain/avr8 gcc/native/3.4.2.1002/avr8-gnu-toolchain/bin/../lib/gcc/avr/4.7.2/avr6\libgcc.a(_muluhisi3.o)
 .bss           0x00000000        0x0 c:/program files (x86)/atmel/atmel toolchain/avr8 gcc/native/3.4.2.1002/avr8-gnu-toolchain/bin/../lib/gcc/avr/4.7.2/avr6\libgcc.a(_muluhisi3.o)
 .text.libgcc.div
                0x00000000        0x0 c:/program files (x86)/atmel/atmel toolchain/avr8 gcc/native/3.4.2.1002/avr8-gnu-toolchain/bin/../lib/gcc/avr/4.7.2/avr6\libgcc.a(_muluhisi3.o)
 .text.libgcc   0x00000000        0x0 c:/program files (x86)/atmel/atmel toolchain/avr8 gcc/native/3.4.2.1002/avr8-gnu-toolchain/bin/../lib/gcc/avr/4.7.2/avr6\libgcc.a(_muluhisi3.o)
 .text.libgcc.prologue
                0x00000000        0x0 c:/program files (x86)/atmel/atmel toolchain/avr8 gcc/native/3.4.2.1002/avr8-gnu-toolchain/bin/../lib/gcc/avr/4.7.2/avr6\libgcc.a(_muluhisi3.o)
 .text.libgcc.builtins
                0x00000000        0x0 c:/program files (x86)/atmel/atmel toolchain/avr8 gcc/native/3.4.2.1002/avr8-gnu-toolchain/bin/../lib/gcc/avr/4.7.2/avr6\libgcc.a(_muluhisi3.o)
 .text.libgcc.fmul
                0x00000000        0x0 c:/program files (x86)/atmel/atmel toolchain/avr8 gcc/native/3.4.2.1002/avr8-gnu-toolchain/bin/../lib/gcc/avr/4.7.2/avr6\libgcc.a(_muluhisi3.o)
 .text          0x00000000        0x0 c:/program files (x86)/atmel/atmel toolchain/avr8 gcc/native/3.4.2.1002/avr8-gnu-toolchain/bin/../lib/gcc/avr/4.7.2/avr6\libgcc.a(_mulshisi3.o)
 .bss           0x00000000        0x0 c:/program files (x86)/atmel/atmel toolchain/avr8 gcc/native/3.4.2.1002/avr8-gnu-toolchain/bin/../lib/gcc/avr/4.7.2/avr6\libgcc.a(_mulshisi3.o)
 .text.libgcc.div
                0x00000000        0x0 c:/program files (x86)/atmel/atmel toolchain/avr8 gcc/native/3.4.2.1002/avr8-gnu-toolchain/bin/../lib/gcc/avr/4.7.2/avr6\libgcc.a(_mulshisi3.o)
 .text.libgcc   0x00000000        0x0 c:/program files (x86)/atmel/atmel toolchain/avr8 gcc/native/3.4.2.1002/avr8-gnu-toolchain/bin/../lib/gcc/avr/4.7.2/avr6\libgcc.a(_mulshisi3.o)
 .text.libgcc.prologue
                0x00000000        0x0 c:/program files (x86)/atmel/atmel toolchain/avr8 gcc/native/3.4.2.1002/avr8-gnu-toolchain/bin/../lib/gcc/avr/4.7.2/avr6\libgcc.a(_mulshisi3.o)
 .text.libgcc.builtins
                0x00000000        0x0 c:/program files (x86)/atmel/atmel toolchain/avr8 gcc/native/3.4.2.1002/avr8-gnu-toolchain/bin/../lib/gcc/avr/4.7.2/avr6\libgcc.a(_mulshisi3.o)
 .text.libgcc.fmul
                0x00000000        0x0 c:/program files (x86)/atmel/atmel toolchain/avr8 gcc/native/3.4.2.1002/avr8-gnu-toolchain/bin/../lib/gcc/avr/4.7.2/avr6\libgcc.a(_mulshisi3.o)
 .text          0x00000000        0x0 c:/program files (x86)/atmel/atmel toolchain/avr8 gcc/native/3.4.2.1002/avr8-gnu-toolchain/bin/../lib/gcc/avr/4.7.2/avr6\libgcc.a(_tablejump_elpm.o)
 .bss           0x00000000        0x0 c:/program files (x86)/atmel/atmel toolchain/avr8 gcc/native/3.4.2.1002/avr8-gnu-toolchain/bin/../lib/gcc/avr/4.7.2/avr6\libgcc.a(_tablejump_elpm.o)
 .text.libgcc.mul
                0x00000000        0x0 c:/program files (x86)/atmel/atmel toolchain/avr8 gcc/native/3.4.2.1002/avr8-gnu-toolchain/bin/../lib/gcc/avr/4.7.2/avr6\libgcc.a(_tablejump_elpm.o)
 .text.libgcc.div
                0x00000000        0x0 c:/program files (x86)/atmel/atmel toolchain/avr8 gcc/native/3.4.2.1002/avr8-gnu-toolchain/bin/../lib/gcc/avr/4.7.2/avr6\libgcc.a(_tablejump_elpm.o)
 .text.libgcc.prologue
                0x00000000        0x0 c:/program files (x86)/atmel/atmel toolchain/avr8 gcc/native/3.4.2.1002/avr8-gnu-toolchain/bin/../lib/gcc/avr/4.7.2/avr6\libgcc.a(_tablejump_elpm.o)
 .text.libgcc.builtins
                0x00000000        0x0 c:/program files (x86)/atmel/atmel toolchain/avr8 gcc/native/3.4.2.1002/avr8-gnu-toolchain/bin/../lib/gcc/avr/4.7.2/avr6\libgcc.a(_tablejump_elpm.o)
 .text.libgcc.fmul
                0x00000000        0x0 c:/program files (x86)/atmel/atmel toolchain/avr8 gcc/native/3.4.2.1002/avr8-gnu-toolchain/bin/../lib/gcc/avr/4.7.2/avr6\libgcc.a(_tablejump_elpm.o)
 .text          0x00000000        0x0 c:/program files (x86)/atmel/atmel toolchain/avr8 gcc/native/3.4.2.1002/avr8-gnu-toolchain/bin/../lib/gcc/avr/4.7.2/avr6\libgcc.a(_udivmodhi4.o)
 .bss           0x00000000        0x0 c:/program files (x86)/atmel/atmel toolchain/avr8 gcc/native/3.4.2.1002/avr8-gnu-toolchain/bin/../lib/gcc/avr/4.7.2/avr6\libgcc.a(_udivmodhi4.o)
 .text.libgcc.mul
                0x00000000        0x0 c:/program files (x86)/atmel/atmel toolchain/avr8 gcc/native/3.4.2.1002/avr8-gnu-toolchain/bin/../lib/gcc/avr/4.7.2/avr6\libgcc.a(_udivmodhi4.o)
 .text.libgcc   0x00000000        0x0 c:/program files (x86)/atmel/atmel toolchain/avr8 gcc/native/3.4.2.1002/avr8-gnu-toolchain/bin/../lib/gcc/avr/4.7.2/avr6\libgcc.a(_udivmodhi4.o)
 .text.libgcc.prologue
                0x00000000        0x0 c:/program files (x86)/atmel/atmel toolchain/avr8 gcc/native/3.4.2.1002/avr8-gnu-toolchain/bin/../lib/gcc/avr/4.7.2/avr6\libgcc.a(_udivmodhi4.o)
 .text.libgcc.builtins
                0x00000000        0x0 c:/program files (x86)/atmel/atmel toolchain/avr8 gcc/native/3.4.2.1002/avr8-gnu-toolchain/bin/../lib/gcc/avr/4.7.2/avr6\libgcc.a(_udivmodhi4.o)
 .text.libgcc.fmul
                0x00000000        0x0 c:/program files (x86)/atmel/atmel toolchain/avr8 gcc/native/3.4.2.1002/avr8-gnu-toolchain/bin/../lib/gcc/avr/4.7.2/avr6\libgcc.a(_udivmodhi4.o)
 .text          0x00000000        0x0 c:/program files (x86)/atmel/atmel toolchain/avr8 gcc/native/3.4.2.1002/avr8-gnu-toolchain/bin/../lib/gcc/avr/4.7.2/../../../../avr/lib/avr6\libc.a(strtod.o)
 .bss           0x00000000        0x0 c:/program files (x86)/atmel/atmel toolchain/avr8 gcc/native/3.4.2.1002/avr8-gnu-toolchain/bin/../lib/gcc/avr/4.7.2/../../../../avr/lib/avr6\libc.a(strtod.o)
 .text          0x00000000        0x0 c:/program files (x86)/atmel/atmel toolchain/avr8 gcc/native/3.4.2.1002/avr8-gnu-toolchain/bin/../lib/gcc/avr/4.7.2/../../../../avr/lib/avr6\libc.a(strtol.o)
 .bss           0x00000000        0x0 c:/program files (x86)/atmel/atmel toolchain/avr8 gcc/native/3.4.2.1002/avr8-gnu-toolchain/bin/../lib/gcc/avr/4.7.2/../../../../avr/lib/avr6\libc.a(strtol.o)
 .text          0x00000000        0x0 c:/program files (x86)/atmel/atmel toolchain/avr8 gcc/native/3.4.2.1002/avr8-gnu-toolchain/bin/../lib/gcc/avr/4.7.2/../../../../avr/lib/avr6\libc.a(atol.o)
 .bss           0x00000000        0x0 c:/program files (x86)/atmel/atmel toolchain/avr8 gcc/native/3.4.2.1002/avr8-gnu-toolchain/bin/../lib/gcc/avr/4.7.2/../../../../avr/lib/avr6\libc.a(atol.o)
 .text.avr-libc
                0x00000000       0x4e c:/program files (x86)/atmel/atmel toolchain/avr8 gcc/native/3.4.2.1002/avr8-gnu-toolchain/bin/../lib/gcc/avr/4.7.2/../../../../avr/lib/avr6\libc.a(atol.o)
 .text          0x00000000        0x0 c:/program files (x86)/atmel/atmel toolchain/avr8 gcc/native/3.4.2.1002/avr8-gnu-toolchain/bin/../lib/gcc/avr/4.7.2/../../../../avr/lib/avr6\libc.a(isspace.o)
 .bss           0x00000000        0x0 c:/program files (x86)/atmel/atmel toolchain/avr8 gcc/native/3.4.2.1002/avr8-gnu-toolchain/bin/../lib/gcc/avr/4.7.2/../../../../avr/lib/avr6\libc.a(isspace.o)
 .text          0x00000000        0x0 c:/program files (x86)/atmel/atmel toolchain/avr8 gcc/native/3.4.2.1002/avr8-gnu-toolchain/bin/../lib/gcc/avr/4.7.2/../../../../avr/lib/avr6\libc.a(tolower.o)
 .bss           0x00000000        0x0 c:/program files (x86)/atmel/atmel toolchain/avr8 gcc/native/3.4.2.1002/avr8-gnu-toolchain/bin/../lib/gcc/avr/4.7.2/../../../../avr/lib/avr6\libc.a(tolower.o)
 .text          0x00000000        0x0 c:/program files (x86)/atmel/atmel toolchain/avr8 gcc/native/3.4.2.1002/avr8-gnu-toolchain/bin/../lib/gcc/avr/4.7.2/../../../../avr/lib/avr6\libc.a(toupper.o)
 .bss           0x00000000        0x0 c:/program files (x86)/atmel/atmel toolchain/avr8 gcc/native/3.4.2.1002/avr8-gnu-toolchain/bin/../lib/gcc/avr/4.7.2/../../../../avr/lib/avr6\libc.a(toupper.o)
 .text.avr-libc
                0x00000000       0x10 c:/program files (x86)/atmel/atmel toolchain/avr8 gcc/native/3.4.2.1002/avr8-gnu-toolchain/bin/../lib/gcc/avr/4.7.2/../../../../avr/lib/avr6\libc.a(toupper.o)
 .text          0x00000000        0x0 c:/program files (x86)/atmel/atmel toolchain/avr8 gcc/native/3.4.2.1002/avr8-gnu-toolchain/bin/../lib/gcc/avr/4.7.2/../../../../avr/lib/avr6\libc.a(strcpy_P.o)
 .bss           0x00000000        0x0 c:/program files (x86)/atmel/atmel toolchain/avr8 gcc/native/3.4.2.1002/avr8-gnu-toolchain/bin/../lib/gcc/avr/4.7.2/../../../../avr/lib/avr6\libc.a(strcpy_P.o)
 .text          0x00000000        0x0 c:/program files (x86)/atmel/atmel toolchain/avr8 gcc/native/3.4.2.1002/avr8-gnu-toolchain/bin/../lib/gcc/avr/4.7.2/../../../../avr/lib/avr6\libc.a(strlen_P.o)
 .bss           0x00000000        0x0 c:/program files (x86)/atmel/atmel toolchain/avr8 gcc/native/3.4.2.1002/avr8-gnu-toolchain/bin/../lib/gcc/avr/4.7.2/../../../../avr/lib/avr6\libc.a(strlen_P.o)
 .text          0x00000000        0x0 c:/program files (x86)/atmel/atmel toolchain/avr8 gcc/native/3.4.2.1002/avr8-gnu-toolchain/bin/../lib/gcc/avr/4.7.2/../../../../avr/lib/avr6\libc.a(strncasecmp_P.o)
 .bss           0x00000000        0x0 c:/program files (x86)/atmel/atmel toolchain/avr8 gcc/native/3.4.2.1002/avr8-gnu-toolchain/bin/../lib/gcc/avr/4.7.2/../../../../avr/lib/avr6\libc.a(strncasecmp_P.o)
 .text          0x00000000        0x0 c:/program files (x86)/atmel/atmel toolchain/avr8 gcc/native/3.4.2.1002/avr8-gnu-toolchain/bin/../lib/gcc/avr/4.7.2/../../../../avr/lib/avr6\libc.a(strncpy_P.o)
 .bss           0x00000000        0x0 c:/program files (x86)/atmel/atmel toolchain/avr8 gcc/native/3.4.2.1002/avr8-gnu-toolchain/bin/../lib/gcc/avr/4.7.2/../../../../avr/lib/avr6\libc.a(strncpy_P.o)
 .text          0x00000000        0x0 c:/program files (x86)/atmel/atmel toolchain/avr8 gcc/native/3.4.2.1002/avr8-gnu-toolchain/bin/../lib/gcc/avr/4.7.2/../../../../avr/lib/avr6\libc.a(strstr_P.o)
 .bss           0x00000000        0x0 c:/program files (x86)/atmel/atmel toolchain/avr8 gcc/native/3.4.2.1002/avr8-gnu-toolchain/bin/../lib/gcc/avr/4.7.2/../../../../avr/lib/avr6\libc.a(strstr_P.o)
 .text          0x00000000        0x0 c:/program files (x86)/atmel/atmel toolchain/avr8 gcc/native/3.4.2.1002/avr8-gnu-toolchain/bin/../lib/gcc/avr/4.7.2/../../../../avr/lib/avr6\libc.a(memcmp.o)
 .bss           0x00000000        0x0 c:/program files (x86)/atmel/atmel toolchain/avr8 gcc/native/3.4.2.1002/avr8-gnu-toolchain/bin/../lib/gcc/avr/4.7.2/../../../../avr/lib/avr6\libc.a(memcmp.o)
 .text          0x00000000        0x0 c:/program files (x86)/atmel/atmel toolchain/avr8 gcc/native/3.4.2.1002/avr8-gnu-toolchain/bin/../lib/gcc/avr/4.7.2/../../../../avr/lib/avr6\libc.a(memcpy.o)
 .bss           0x00000000        0x0 c:/program files (x86)/atmel/atmel toolchain/avr8 gcc/native/3.4.2.1002/avr8-gnu-toolchain/bin/../lib/gcc/avr/4.7.2/../../../../avr/lib/avr6\libc.a(memcpy.o)
 .text          0x00000000        0x0 c:/program files (x86)/atmel/atmel toolchain/avr8 gcc/native/3.4.2.1002/avr8-gnu-toolchain/bin/../lib/gcc/avr/4.7.2/../../../../avr/lib/avr6\libc.a(memmove.o)
 .bss           0x00000000        0x0 c:/program files (x86)/atmel/atmel toolchain/avr8 gcc/native/3.4.2.1002/avr8-gnu-toolchain/bin/../lib/gcc/avr/4.7.2/../../../../avr/lib/avr6\libc.a(memmove.o)
 .text.avr-libc
                0x00000000       0x24 c:/program files (x86)/atmel/atmel toolchain/avr8 gcc/native/3.4.2.1002/avr8-gnu-toolchain/bin/../lib/gcc/avr/4.7.2/../../../../avr/lib/avr6\libc.a(memmove.o)
 .text          0x00000000        0x0 c:/program files (x86)/atmel/atmel toolchain/avr8 gcc/native/3.4.2.1002/avr8-gnu-toolchain/bin/../lib/gcc/avr/4.7.2/../../../../avr/lib/avr6\libc.a(strcat.o)
 .bss           0x00000000        0x0 c:/program files (x86)/atmel/atmel toolchain/avr8 gcc/native/3.4.2.1002/avr8-gnu-toolchain/bin/../lib/gcc/avr/4.7.2/../../../../avr/lib/avr6\libc.a(strcat.o)
 .text          0x00000000        0x0 c:/program files (x86)/atmel/atmel toolchain/avr8 gcc/native/3.4.2.1002/avr8-gnu-toolchain/bin/../lib/gcc/avr/4.7.2/../../../../avr/lib/avr6\libc.a(strchr.o)
 .bss           0x00000000        0x0 c:/program files (x86)/atmel/atmel toolchain/avr8 gcc/native/3.4.2.1002/avr8-gnu-toolchain/bin/../lib/gcc/avr/4.7.2/../../../../avr/lib/avr6\libc.a(strchr.o)
 .text          0x00000000        0x0 c:/program files (x86)/atmel/atmel toolchain/avr8 gcc/native/3.4.2.1002/avr8-gnu-toolchain/bin/../lib/gcc/avr/4.7.2/../../../../avr/lib/avr6\libc.a(strcmp.o)
 .bss           0x00000000        0x0 c:/program files (x86)/atmel/atmel toolchain/avr8 gcc/native/3.4.2.1002/avr8-gnu-toolchain/bin/../lib/gcc/avr/4.7.2/../../../../avr/lib/avr6\libc.a(strcmp.o)
 .text.avr-libc
                0x00000000       0x12 c:/program files (x86)/atmel/atmel toolchain/avr8 gcc/native/3.4.2.1002/avr8-gnu-toolchain/bin/../lib/gcc/avr/4.7.2/../../../../avr/lib/avr6\libc.a(strcmp.o)
 .text          0x00000000        0x0 c:/program files (x86)/atmel/atmel toolchain/avr8 gcc/native/3.4.2.1002/avr8-gnu-toolchain/bin/../lib/gcc/avr/4.7.2/../../../../avr/lib/avr6\libc.a(strcpy.o)
 .bss           0x00000000        0x0 c:/program files (x86)/atmel/atmel toolchain/avr8 gcc/native/3.4.2.1002/avr8-gnu-toolchain/bin/../lib/gcc/avr/4.7.2/../../../../avr/lib/avr6\libc.a(strcpy.o)
 .text          0x00000000        0x0 c:/program files (x86)/atmel/atmel toolchain/avr8 gcc/native/3.4.2.1002/avr8-gnu-toolchain/bin/../lib/gcc/avr/4.7.2/../../../../avr/lib/avr6\libc.a(strncmp.o)
 .bss           0x00000000        0x0 c:/program files (x86)/atmel/atmel toolchain/avr8 gcc/native/3.4.2.1002/avr8-gnu-toolchain/bin/../lib/gcc/avr/4.7.2/../../../../avr/lib/avr6\libc.a(strncmp.o)
 .text          0x00000000        0x0 c:/program files (x86)/atmel/atmel toolchain/avr8 gcc/native/3.4.2.1002/avr8-gnu-toolchain/bin/../lib/gcc/avr/4.7.2/../../../../avr/lib/avr6\libc.a(strncpy.o)
 .bss           0x00000000        0x0 c:/program files (x86)/atmel/atmel toolchain/avr8 gcc/native/3.4.2.1002/avr8-gnu-toolchain/bin/../lib/gcc/avr/4.7.2/../../../../avr/lib/avr6\libc.a(strncpy.o)
 .text          0x00000000        0x0 c:/program files (x86)/atmel/atmel toolchain/avr8 gcc/native/3.4.2.1002/avr8-gnu-toolchain/bin/../lib/gcc/avr/4.7.2/../../../../avr/lib/avr6\libc.a(strrchr.o)
 .bss           0x00000000        0x0 c:/program files (x86)/atmel/atmel toolchain/avr8 gcc/native/3.4.2.1002/avr8-gnu-toolchain/bin/../lib/gcc/avr/4.7.2/../../../../avr/lib/avr6\libc.a(strrchr.o)
 .text.avr-libc
                0x00000000       0x16 c:/program files (x86)/atmel/atmel toolchain/avr8 gcc/native/3.4.2.1002/avr8-gnu-toolchain/bin/../lib/gcc/avr/4.7.2/../../../../avr/lib/avr6\libc.a(strrchr.o)
 .text          0x00000000        0x0 c:/program files (x86)/atmel/atmel toolchain/avr8 gcc/native/3.4.2.1002/avr8-gnu-toolchain/bin/../lib/gcc/avr/4.7.2/../../../../avr/lib/avr6\libc.a(strstr.o)
 .bss           0x00000000        0x0 c:/program files (x86)/atmel/atmel toolchain/avr8 gcc/native/3.4.2.1002/avr8-gnu-toolchain/bin/../lib/gcc/avr/4.7.2/../../../../avr/lib/avr6\libc.a(strstr.o)
 .text.avr-libc
                0x00000000       0x34 c:/program files (x86)/atmel/atmel toolchain/avr8 gcc/native/3.4.2.1002/avr8-gnu-toolchain/bin/../lib/gcc/avr/4.7.2/../../../../avr/lib/avr6\libc.a(strstr.o)
 .text          0x00000000        0x0 c:/program files (x86)/atmel/atmel toolchain/avr8 gcc/native/3.4.2.1002/avr8-gnu-toolchain/bin/../lib/gcc/avr/4.7.2/../../../../avr/lib/avr6\libc.a(itoa.o)
 .bss           0x00000000        0x0 c:/program files (x86)/atmel/atmel toolchain/avr8 gcc/native/3.4.2.1002/avr8-gnu-toolchain/bin/../lib/gcc/avr/4.7.2/../../../../avr/lib/avr6\libc.a(itoa.o)
 .text.avr-libc
                0x00000000       0x42 c:/program files (x86)/atmel/atmel toolchain/avr8 gcc/native/3.4.2.1002/avr8-gnu-toolchain/bin/../lib/gcc/avr/4.7.2/../../../../avr/lib/avr6\libc.a(itoa.o)
 .text          0x00000000        0x0 c:/program files (x86)/atmel/atmel toolchain/avr8 gcc/native/3.4.2.1002/avr8-gnu-toolchain/bin/../lib/gcc/avr/4.7.2/../../../../avr/lib/avr6\libc.a(ltoa.o)
 .bss           0x00000000        0x0 c:/program files (x86)/atmel/atmel toolchain/avr8 gcc/native/3.4.2.1002/avr8-gnu-toolchain/bin/../lib/gcc/avr/4.7.2/../../../../avr/lib/avr6\libc.a(ltoa.o)
 .text.avr-libc
                0x00000000       0x68 c:/program files (x86)/atmel/atmel toolchain/avr8 gcc/native/3.4.2.1002/avr8-gnu-toolchain/bin/../lib/gcc/avr/4.7.2/../../../../avr/lib/avr6\libc.a(ltoa.o)
 .text          0x00000000        0x0 c:/program files (x86)/atmel/atmel toolchain/avr8 gcc/native/3.4.2.1002/avr8-gnu-toolchain/bin/../lib/gcc/avr/4.7.2/../../../../avr/lib/avr6\libc.a(mulsi10.o)
 .bss           0x00000000        0x0 c:/program files (x86)/atmel/atmel toolchain/avr8 gcc/native/3.4.2.1002/avr8-gnu-toolchain/bin/../lib/gcc/avr/4.7.2/../../../../avr/lib/avr6\libc.a(mulsi10.o)
 .text.avr-libc
                0x00000000       0x2a c:/program files (x86)/atmel/atmel toolchain/avr8 gcc/native/3.4.2.1002/avr8-gnu-toolchain/bin/../lib/gcc/avr/4.7.2/../../../../avr/lib/avr6\libc.a(mulsi10.o)
 .text          0x00000000        0x0 c:/program files (x86)/atmel/atmel toolchain/avr8 gcc/native/3.4.2.1002/avr8-gnu-toolchain/bin/../lib/gcc/avr/4.7.2/../../../../avr/lib/avr6\libc.a(ultoa.o)
 .bss           0x00000000        0x0 c:/program files (x86)/atmel/atmel toolchain/avr8 gcc/native/3.4.2.1002/avr8-gnu-toolchain/bin/../lib/gcc/avr/4.7.2/../../../../avr/lib/avr6\libc.a(ultoa.o)
 .text.avr-libc
                0x00000000       0x4a c:/program files (x86)/atmel/atmel toolchain/avr8 gcc/native/3.4.2.1002/avr8-gnu-toolchain/bin/../lib/gcc/avr/4.7.2/../../../../avr/lib/avr6\libc.a(ultoa.o)
 .text          0x00000000        0x0 c:/program files (x86)/atmel/atmel toolchain/avr8 gcc/native/3.4.2.1002/avr8-gnu-toolchain/bin/../lib/gcc/avr/4.7.2/../../../../avr/lib/avr6\libc.a(utoa.o)
 .bss           0x00000000        0x0 c:/program files (x86)/atmel/atmel toolchain/avr8 gcc/native/3.4.2.1002/avr8-gnu-toolchain/bin/../lib/gcc/avr/4.7.2/../../../../avr/lib/avr6\libc.a(utoa.o)
 .text.avr-libc
                0x00000000       0x2c c:/program files (x86)/atmel/atmel toolchain/avr8 gcc/native/3.4.2.1002/avr8-gnu-toolchain/bin/../lib/gcc/avr/4.7.2/../../../../avr/lib/avr6\libc.a(utoa.o)
 .text          0x00000000        0x0 c:/program files (x86)/atmel/atmel toolchain/avr8 gcc/native/3.4.2.1002/avr8-gnu-toolchain/bin/../lib/gcc/avr/4.7.2/../../../../avr/lib/avr6\libc.a(sprintf_p.o)
 .bss           0x00000000        0x0 c:/program files (x86)/atmel/atmel toolchain/avr8 gcc/native/3.4.2.1002/avr8-gnu-toolchain/bin/../lib/gcc/avr/4.7.2/../../../../avr/lib/avr6\libc.a(sprintf_p.o)
 .text          0x00000000        0x0 c:/program files (x86)/atmel/atmel toolchain/avr8 gcc/native/3.4.2.1002/avr8-gnu-toolchain/bin/../lib/gcc/avr/4.7.2/../../../../avr/lib/avr6\libc.a(vfprintf_std.o)
 .bss           0x00000000        0x0 c:/program files (x86)/atmel/atmel toolchain/avr8 gcc/native/3.4.2.1002/avr8-gnu-toolchain/bin/../lib/gcc/avr/4.7.2/../../../../avr/lib/avr6\libc.a(vfprintf_std.o)
 .text          0x00000000        0x0 c:/program files (x86)/atmel/atmel toolchain/avr8 gcc/native/3.4.2.1002/avr8-gnu-toolchain/bin/../lib/gcc/avr/4.7.2/../../../../avr/lib/avr6\libc.a(eerd_byte_atmega2560.o)
 .bss           0x00000000        0x0 c:/program files (x86)/atmel/atmel toolchain/avr8 gcc/native/3.4.2.1002/avr8-gnu-toolchain/bin/../lib/gcc/avr/4.7.2/../../../../avr/lib/avr6\libc.a(eerd_byte_atmega2560.o)
 .text.avr-libc
                0x00000000       0x10 c:/program files (x86)/atmel/atmel toolchain/avr8 gcc/native/3.4.2.1002/avr8-gnu-toolchain/bin/../lib/gcc/avr/4.7.2/../../../../avr/lib/avr6\libc.a(eerd_byte_atmega2560.o)
 .text          0x00000000        0x0 c:/program files (x86)/atmel/atmel toolchain/avr8 gcc/native/3.4.2.1002/avr8-gnu-toolchain/bin/../lib/gcc/avr/4.7.2/../../../../avr/lib/avr6\libc.a(eewr_byte_atmega2560.o)
 .bss           0x00000000        0x0 c:/program files (x86)/atmel/atmel toolchain/avr8 gcc/native/3.4.2.1002/avr8-gnu-toolchain/bin/../lib/gcc/avr/4.7.2/../../../../avr/lib/avr6\libc.a(eewr_byte_atmega2560.o)
 .text.avr-libc
                0x00000000       0x1c c:/program files (x86)/atmel/atmel toolchain/avr8 gcc/native/3.4.2.1002/avr8-gnu-toolchain/bin/../lib/gcc/avr/4.7.2/../../../../avr/lib/avr6\libc.a(eewr_byte_atmega2560.o)
 .text          0x00000000        0x0 c:/program files (x86)/atmel/atmel toolchain/avr8 gcc/native/3.4.2.1002/avr8-gnu-toolchain/bin/../lib/gcc/avr/4.7.2/../../../../avr/lib/avr6\libc.a(errno.o)
 .bss           0x00000000        0x0 c:/program files (x86)/atmel/atmel toolchain/avr8 gcc/native/3.4.2.1002/avr8-gnu-toolchain/bin/../lib/gcc/avr/4.7.2/../../../../avr/lib/avr6\libc.a(errno.o)
 .text          0x00000000        0x0 c:/program files (x86)/atmel/atmel toolchain/avr8 gcc/native/3.4.2.1002/avr8-gnu-toolchain/bin/../lib/gcc/avr/4.7.2/../../../../avr/lib/avr6\libc.a(cty_isfalse.o)
 .bss           0x00000000        0x0 c:/program files (x86)/atmel/atmel toolchain/avr8 gcc/native/3.4.2.1002/avr8-gnu-toolchain/bin/../lib/gcc/avr/4.7.2/../../../../avr/lib/avr6\libc.a(cty_isfalse.o)
 .text          0x00000000        0x0 c:/program files (x86)/atmel/atmel toolchain/avr8 gcc/native/3.4.2.1002/avr8-gnu-toolchain/bin/../lib/gcc/avr/4.7.2/../../../../avr/lib/avr6\libc.a(strnlen_P.o)
 .bss           0x00000000        0x0 c:/program files (x86)/atmel/atmel toolchain/avr8 gcc/native/3.4.2.1002/avr8-gnu-toolchain/bin/../lib/gcc/avr/4.7.2/../../../../avr/lib/avr6\libc.a(strnlen_P.o)
 .text          0x00000000        0x0 c:/program files (x86)/atmel/atmel toolchain/avr8 gcc/native/3.4.2.1002/avr8-gnu-toolchain/bin/../lib/gcc/avr/4.7.2/../../../../avr/lib/avr6\libc.a(strnlen.o)
 .bss           0x00000000        0x0 c:/program files (x86)/atmel/atmel toolchain/avr8 gcc/native/3.4.2.1002/avr8-gnu-toolchain/bin/../lib/gcc/avr/4.7.2/../../../../avr/lib/avr6\libc.a(strnlen.o)
 .text          0x00000000        0x0 c:/program files (x86)/atmel/atmel toolchain/avr8 gcc/native/3.4.2.1002/avr8-gnu-toolchain/bin/../lib/gcc/avr/4.7.2/../../../../avr/lib/avr6\libc.a(strrev.o)
 .bss           0x00000000        0x0 c:/program files (x86)/atmel/atmel toolchain/avr8 gcc/native/3.4.2.1002/avr8-gnu-toolchain/bin/../lib/gcc/avr/4.7.2/../../../../avr/lib/avr6\libc.a(strrev.o)
 .text.avr-libc
                0x00000000       0x20 c:/program files (x86)/atmel/atmel toolchain/avr8 gcc/native/3.4.2.1002/avr8-gnu-toolchain/bin/../lib/gcc/avr/4.7.2/../../../../avr/lib/avr6\libc.a(strrev.o)
 .text          0x00000000        0x0 c:/program files (x86)/atmel/atmel toolchain/avr8 gcc/native/3.4.2.1002/avr8-gnu-toolchain/bin/../lib/gcc/avr/4.7.2/../../../../avr/lib/avr6\libc.a(fputc.o)
 .bss           0x00000000        0x0 c:/program files (x86)/atmel/atmel toolchain/avr8 gcc/native/3.4.2.1002/avr8-gnu-toolchain/bin/../lib/gcc/avr/4.7.2/../../../../avr/lib/avr6\libc.a(fputc.o)
 .text          0x00000000        0x0 c:/program files (x86)/atmel/atmel toolchain/avr8 gcc/native/3.4.2.1002/avr8-gnu-toolchain/bin/../lib/gcc/avr/4.7.2/../../../../avr/lib/avr6\libc.a(ultoa_invert.o)
 .bss           0x00000000        0x0 c:/program files (x86)/atmel/atmel toolchain/avr8 gcc/native/3.4.2.1002/avr8-gnu-toolchain/bin/../lib/gcc/avr/4.7.2/../../../../avr/lib/avr6\libc.a(ultoa_invert.o)

Memory Configuration

Name             Origin             Length             Attributes
text             0x00000000         0x00100000         xr
data             0x00800200         0x0000fe00         rw !x
eeprom           0x00810000         0x00010000         rw !x
fuse             0x00820000         0x00000400         rw !x
lock             0x00830000         0x00000400         rw !x
signature        0x00840000         0x00000400         rw !x
user_signatures  0x00850000         0x00000400         rw !x
*default*        0x00000000         0xffffffff

Linker script and memory map

Address of section .data set to 0x800200
LOAD c:/program files (x86)/atmel/atmel toolchain/avr8 gcc/native/3.4.2.1002/avr8-gnu-toolchain/bin/../lib/gcc/avr/4.7.2/../../../../avr/lib/avr6/crtm2560.o
LOAD libs/I2CIO.o
LOAD libs/LCD.o
LOAD libs/LiquidCrystal_I2C.o
LOAD libs/LiquidTWI2.o
LOAD cardreader.o
LOAD ConfigurationStore.o
LOAD libs/Wire.o
LOAD LiquidCrystalRus.o
LOAD Marlin.o
LOAD MarlinSerial.o
LOAD Marlin_main.o
LOAD motion_control.o
LOAD planner.o
LOAD Sd2Card.o
LOAD SdBaseFile.o
LOAD SdFatUtil.o
LOAD SdFile.o
LOAD SdVolume.o
LOAD Servo.o
LOAD stepper.o
LOAD temperature.o
LOAD twi.o
LOAD ultralcd.o
LOAD watchdog.o
START GROUP
LOAD c:/program files (x86)/atmel/atmel toolchain/avr8 gcc/native/3.4.2.1002/avr8-gnu-toolchain/bin/../lib/gcc/avr/4.7.2/../../../../avr/lib/avr6\libm.a
LOAD C:\Users\Shady\Documents\Atmel Studio\arduinoCoreMega\libcore.a
END GROUP
LOAD c:/program files (x86)/atmel/atmel toolchain/avr8 gcc/native/3.4.2.1002/avr8-gnu-toolchain/bin/../lib/gcc/avr/4.7.2/avr6\libgcc.a
LOAD c:/program files (x86)/atmel/atmel toolchain/avr8 gcc/native/3.4.2.1002/avr8-gnu-toolchain/bin/../lib/gcc/avr/4.7.2/../../../../avr/lib/avr6\libm.a
LOAD c:/program files (x86)/atmel/atmel toolchain/avr8 gcc/native/3.4.2.1002/avr8-gnu-toolchain/bin/../lib/gcc/avr/4.7.2/avr6\libgcc.a
LOAD c:/program files (x86)/atmel/atmel toolchain/avr8 gcc/native/3.4.2.1002/avr8-gnu-toolchain/bin/../lib/gcc/avr/4.7.2/../../../../avr/lib/avr6\libc.a
LOAD c:/program files (x86)/atmel/atmel toolchain/avr8 gcc/native/3.4.2.1002/avr8-gnu-toolchain/bin/../lib/gcc/avr/4.7.2/avr6\libgcc.a

.hash
 *(.hash)

.dynsym
 *(.dynsym)

.dynstr
 *(.dynstr)

.gnu.version
 *(.gnu.version)

.gnu.version_d
 *(.gnu.version_d)

.gnu.version_r
 *(.gnu.version_r)

.rel.init
 *(.rel.init)

.rela.init
 *(.rela.init)

.rel.text
 *(.rel.text)
 *(.rel.text.*)
 *(.rel.gnu.linkonce.t*)

.rela.text
 *(.rela.text)
 *(.rela.text.*)
 *(.rela.gnu.linkonce.t*)

.rel.fini
 *(.rel.fini)

.rela.fini
 *(.rela.fini)

.rel.rodata
 *(.rel.rodata)
 *(.rel.rodata.*)
 *(.rel.gnu.linkonce.r*)

.rela.rodata
 *(.rela.rodata)
 *(.rela.rodata.*)
 *(.rela.gnu.linkonce.r*)

.rel.data
 *(.rel.data)
 *(.rel.data.*)
 *(.rel.gnu.linkonce.d*)

.rela.data
 *(.rela.data)
 *(.rela.data.*)
 *(.rela.gnu.linkonce.d*)

.rel.ctors
 *(.rel.ctors)

.rela.ctors
 *(.rela.ctors)

.rel.dtors
 *(.rel.dtors)

.rela.dtors
 *(.rela.dtors)

.rel.got
 *(.rel.got)

.rela.got
 *(.rela.got)

.rel.bss
 *(.rel.bss)

.rela.bss
 *(.rela.bss)

.rel.plt
 *(.rel.plt)

.rela.plt
 *(.rela.plt)

.text           0x00000000    0x18e54
 *(.vectors)
 .vectors       0x00000000       0xe4 c:/program files (x86)/atmel/atmel toolchain/avr8 gcc/native/3.4.2.1002/avr8-gnu-toolchain/bin/../lib/gcc/avr/4.7.2/../../../../avr/lib/avr6/crtm2560.o
                0x00000000                __vector_default
                0x00000000                __vectors
 *(.vectors)
 *(.progmem.gcc*)
 .progmem.gcc_fplib
                0x000000e4       0x2d c:/program files (x86)/atmel/atmel toolchain/avr8 gcc/native/3.4.2.1002/avr8-gnu-toolchain/bin/../lib/gcc/avr/4.7.2/../../../../avr/lib/avr6\libm.a(atan.o)
 .progmem.gcc_fplib
                0x00000111       0x1e c:/program files (x86)/atmel/atmel toolchain/avr8 gcc/native/3.4.2.1002/avr8-gnu-toolchain/bin/../lib/gcc/avr/4.7.2/../../../../avr/lib/avr6\libm.a(fp_sinus.o)
 *(.progmem*)
 .progmem.data._ZL9echomagic
                0x0000012f        0x6 cardreader.o
 .progmem.data._ZZN10CardReader6initsdEvE3__c
                0x00000135        0xd cardreader.o
 .progmem.data._ZL10errormagic
                0x00000142        0x7 cardreader.o
 .progmem.data._ZZN10CardReader6initsdEvE3__c_0
                0x00000149       0x13 cardreader.o
 .progmem.data._ZZN10CardReader6initsdEvE3__c_1
                0x0000015c       0x10 cardreader.o
 .progmem.data._ZZN10CardReader6initsdEvE3__c_2
                0x0000016c        0xb cardreader.o
 .progmem.data._ZZN10CardReader8openFileEPcbE3__c
                0x00000177       0x14 cardreader.o
 .progmem.data._ZZN10CardReader8openFileEPcbE3__c_0
                0x0000018b        0x2 cardreader.o
 .progmem.data._ZZN10CardReader8openFileEPcbE3__c_1
                0x0000018d        0xe cardreader.o
 .progmem.data._ZZN10CardReader8openFileEPcbE3__c_2
                0x0000019b        0x8 cardreader.o
 .progmem.data._ZZN10CardReader8openFileEPcbE3__c_3
                0x000001a3        0xe cardreader.o
 .progmem.data._ZZN10CardReader8openFileEPcbE3__c_4
                0x000001b1       0x14 cardreader.o
 .progmem.data._ZZN10CardReader8openFileEPcbE3__c_5
                0x000001c5        0x2 cardreader.o
 .progmem.data._ZZN10CardReader8openFileEPcbE3__c_6
                0x000001c7       0x14 cardreader.o
 .progmem.data._ZZN10CardReader8openFileEPcbE3__c_7
                0x000001db        0x2 cardreader.o
 .progmem.data._ZZN10CardReader8openFileEPcbE3__c_8
                0x000001dd       0x12 cardreader.o
 .progmem.data._ZZN10CardReader10removeFileEPcE3__c
                0x000001ef       0x14 cardreader.o
 .progmem.data._ZZN10CardReader10removeFileEPcE3__c_0
                0x00000203        0x2 cardreader.o
 .progmem.data._ZZN10CardReader10removeFileEPcE3__c_1
                0x00000205        0xe cardreader.o
 .progmem.data._ZZN10CardReader10removeFileEPcE3__c_2
                0x00000213       0x18 cardreader.o
 .progmem.data._ZZN10CardReader10removeFileEPcE3__c_3
                0x0000022b        0x2 cardreader.o
 .progmem.data._ZZN10CardReader9getStatusEvE3__c
                0x0000022d       0x12 cardreader.o
 .progmem.data._ZZN10CardReader9getStatusEvE3__c_0
                0x0000023f        0x2 cardreader.o
 .progmem.data._ZZN10CardReader9getStatusEvE3__c_1
                0x00000241       0x10 cardreader.o
 .progmem.data._ZZN10CardReader13write_commandEPcE3__c
                0x00000251       0x16 cardreader.o
 .progmem.data._ZZN10CardReader14checkautostartEbE3__c
                0x00000267        0x9 cardreader.o
 .progmem.data._ZZN10CardReader14checkautostartEbE3__c_0
                0x00000270        0x7 cardreader.o
 .progmem.data._ZZN10CardReader14checkautostartEbE3__c_1
                0x00000277        0x4 cardreader.o
 .progmem.data._ZZN10CardReader5chdirEPKcE3__c
                0x0000027b       0x16 cardreader.o
 .progmem.data._ZZN10CardReader19printingHasFinishedEvE3__c
                0x00000291        0xc cardreader.o
 .progmem.data._ZL9echomagic
                0x0000029d        0x6 ConfigurationStore.o
 .progmem.data._ZZ19Config_ResetDefaultvE3__c
                0x000002a3       0x22 ConfigurationStore.o
 .progmem.data._ZL9echomagic
                0x000002c5        0x6 Marlin_main.o
 .progmem.data._ZZ12enquecommandPKcE3__c
                0x000002cb        0xb Marlin_main.o
 .progmem.data._ZZ12enquecommandPKcE3__c_0
                0x000002d6        0x2 Marlin_main.o
 .progmem.data._ZZ14enquecommand_PPKcE3__c
                0x000002d8        0xb Marlin_main.o
 .progmem.data._ZZ14enquecommand_PPKcE3__c_0
                0x000002e3        0x2 Marlin_main.o
 .progmem.data._ZZ5setupE3__c
                0x000002e5        0x6 Marlin_main.o
 .progmem.data._ZZ5setupE3__c_0
                0x000002eb        0x8 Marlin_main.o
 .progmem.data._ZZ5setupE3__c_1
                0x000002f3       0x10 Marlin_main.o
 .progmem.data._ZZ5setupE3__c_2
                0x00000303       0x11 Marlin_main.o
 .progmem.data._ZZ5setupE3__c_3
                0x00000314       0x10 Marlin_main.o
 .progmem.data._ZZ5setupE3__c_4
                0x00000324       0x10 Marlin_main.o
 .progmem.data._ZZ5setupE3__c_5
                0x00000334        0x8 Marlin_main.o
 .progmem.data._ZZ5setupE3__c_6
                0x0000033c        0x6 Marlin_main.o
 .progmem.data._ZZ5setupE3__c_7
                0x00000342       0x10 Marlin_main.o
 .progmem.data._ZZ5setupE3__c_8
                0x00000352       0x15 Marlin_main.o
 .progmem.data._ZZ5setupE3__c_9
                0x00000367        0xc Marlin_main.o
 .progmem.data._ZZ5setupE3__c_10
                0x00000373       0x17 Marlin_main.o
 .progmem.data._ZZ5setupE3__c_11
                0x0000038a        0xb Marlin_main.o
 .progmem.data._ZZ5setupE3__c_12
                0x00000395        0xc Marlin_main.o
 .progmem.data._ZZ5setupE3__c_13
                0x000003a1        0xf Marlin_main.o
 .progmem.data._ZZ5setupE3__c_14
                0x000003b0       0x17 Marlin_main.o
 .progmem.data._ZZ4loopE3__c
                0x000003c7        0x4 Marlin_main.o
 .progmem.data._ZZ4loopE3__c_0
                0x000003cb        0x3 Marlin_main.o
 .progmem.data._ZZ4loopE3__c_1
                0x000003ce       0x12 Marlin_main.o
 .progmem.data._ZZ11get_commandvE3__c
                0x000003e0        0x5 Marlin_main.o
 .progmem.data._ZL10errormagic
                0x000003e5        0x7 Marlin_main.o
 .progmem.data._ZZ11get_commandvE3__c_0
                0x000003ec       0x33 Marlin_main.o
 .progmem.data._ZZ11get_commandvE3__c_1
                0x0000041f       0x1f Marlin_main.o
 .progmem.data._ZZ11get_commandvE3__c_2
                0x0000043e       0x2a Marlin_main.o
 .progmem.data._ZZ11get_commandvE3__c_3
                0x00000468       0x2a Marlin_main.o
 .progmem.data._ZZ11get_commandvE3__c_4
                0x00000492        0x3 Marlin_main.o
 .progmem.data._ZZ11get_commandvE3__c_5
                0x00000495       0x76 Marlin_main.o
 .progmem.data._ZZ11get_commandvE3__c_6
                0x0000050b        0xa Marlin_main.o
 .progmem.data._ZZ11get_commandvE3__c_7
                0x00000515       0x13 Marlin_main.o
 .progmem.data._ZZ11get_commandvE3__c_8
                0x00000528       0x14 Marlin_main.o
 .progmem.data._ZZ16process_commandsvE3__c
                0x0000053c        0x9 Marlin_main.o
 .progmem.data._ZZ16process_commandsvE3__c_0
                0x00000545       0x11 Marlin_main.o
 .progmem.data._ZZ16process_commandsvE3__c_1
                0x00000556        0xf Marlin_main.o
 .progmem.data._ZZ16process_commandsvE3__c_2
                0x00000565        0x9 Marlin_main.o
 .progmem.data._ZZ16process_commandsvE3__c_3
                0x0000056e       0x10 Marlin_main.o
 .progmem.data._ZZ16process_commandsvE3__c_4
                0x0000057e        0xe Marlin_main.o
 .progmem.data._ZZ16process_commandsvE3__c_5
                0x0000058c        0xf Marlin_main.o
 .progmem.data._ZZ16process_commandsvE3__c_6
                0x0000059b        0x6 Marlin_main.o
 .progmem.data._ZZ16process_commandsvE3__c_7
                0x000005a1        0x3 Marlin_main.o
 .progmem.data._ZZ16process_commandsvE3__c_8
                0x000005a4        0x4 Marlin_main.o
 .progmem.data._ZZ16process_commandsvE3__c_9
                0x000005a8        0x3 Marlin_main.o
 .progmem.data._ZZ16process_commandsvE3__c_10
                0x000005ab        0x3 Marlin_main.o
 .progmem.data._ZZ16process_commandsvE3__c_11
                0x000005ae        0x2 Marlin_main.o
 .progmem.data._ZZ16process_commandsvE3__c_12
                0x000005b0        0x3 Marlin_main.o
 .progmem.data._ZZ16process_commandsvE3__c_13
                0x000005b3        0x4 Marlin_main.o
 .progmem.data._ZZ16process_commandsvE3__c_14
                0x000005b7        0x5 Marlin_main.o
 .progmem.data._ZZ16process_commandsvE3__c_15
                0x000005bc        0xb Marlin_main.o
 .progmem.data._ZZ16process_commandsvE3__c_16
                0x000005c7        0x3 Marlin_main.o
 .progmem.data._ZZ16process_commandsvE3__c_17
                0x000005ca        0x4 Marlin_main.o
 .progmem.data._ZZ16process_commandsvE3__c_18
                0x000005ce        0x4 Marlin_main.o
 .progmem.data._ZZ16process_commandsvE3__c_19
                0x000005d2        0xe Marlin_main.o
 .progmem.data._ZZ16process_commandsvE3__c_20
                0x000005e0        0xd Marlin_main.o
 .progmem.data._ZZ16process_commandsvE3__c_21
                0x000005ed        0x3 Marlin_main.o
 .progmem.data._ZZ16process_commandsvE3__c_22
                0x000005f0        0x4 Marlin_main.o
 .progmem.data._ZZ16process_commandsvE3__c_23
                0x000005f4        0x4 Marlin_main.o
 .progmem.data._ZZ16process_commandsvE3__c_24
                0x000005f8        0xa Marlin_main.o
 .progmem.data._ZZ16process_commandsvE3__c_25
                0x00000602       0x11 Marlin_main.o
 .progmem.data._ZZ16process_commandsvE3__c_26
                0x00000613        0xf Marlin_main.o
 .progmem.data._ZZ16process_commandsvE3__c_27
                0x00000622       0xa0 Marlin_main.o
 .progmem.data._ZZ16process_commandsvE3__c_28
                0x000006c2        0x3 Marlin_main.o
 .progmem.data._ZZ16process_commandsvE3__c_29
                0x000006c5        0x3 Marlin_main.o
 .progmem.data._ZZ16process_commandsvE3__c_30
                0x000006c8        0x3 Marlin_main.o
 .progmem.data._ZZ16process_commandsvE3__c_31
                0x000006cb        0x3 Marlin_main.o
 .progmem.data._ZZ16process_commandsvE3__c_32
                0x000006ce        0xb Marlin_main.o
 .progmem.data._ZZ16process_commandsvE3__c_33
                0x000006d9        0x3 Marlin_main.o
 .progmem.data._ZZ16process_commandsvE3__c_34
                0x000006dc        0x3 Marlin_main.o
 .progmem.data._ZZ16process_commandsvE3__c_35
                0x000006df        0x8 Marlin_main.o
 .progmem.data._ZZ16process_commandsvE3__c_36
                0x000006e7        0x8 Marlin_main.o
 .progmem.data._ZZ16process_commandsvE3__c_37
                0x000006ef        0x8 Marlin_main.o
 .progmem.data._ZZ16process_commandsvE3__c_38
                0x000006f7        0x8 Marlin_main.o
 .progmem.data._ZZ16process_commandsvE3__c_39
                0x000006ff        0x8 Marlin_main.o
 .progmem.data._ZZ16process_commandsvE3__c_40
                0x00000707        0x8 Marlin_main.o
 .progmem.data._ZZ16process_commandsvE3__c_41
                0x0000070f       0x13 Marlin_main.o
 .progmem.data._ZZ16process_commandsvE3__c_42
                0x00000722        0x2 Marlin_main.o
 .progmem.data._ZL10home_dir_P
                0x00000724        0x3 Marlin_main.o
 .progmem.data._ZL12max_length_P
                0x00000727        0xc Marlin_main.o
 .progmem.data._ZL17home_retract_mm_P
                0x00000733        0xc Marlin_main.o
 .progmem.data._ZL15base_home_pos_P
                0x0000073f        0xc Marlin_main.o
 .progmem.data._ZL14base_min_pos_P
                0x0000074b        0xc Marlin_main.o
 .progmem.data._ZL14base_max_pos_P
                0x00000757        0xc Marlin_main.o
 .progmem.data._ZZ24FlushSerialRequestResendvE3__c
                0x00000763        0x9 Marlin_main.o
 .progmem.data._ZZ11ClearToSendvE3__c
                0x0000076c        0x3 Marlin_main.o
 .progmem.data._ZZ4killvE3__c
                0x0000076f       0x1f Marlin_main.o
 .progmem.data._ZZ4killvE3__c_0
                0x0000078e        0x9 Marlin_main.o
 .progmem.data._ZZ4StopvE3__c
                0x00000797       0x76 Marlin_main.o
 .progmem.data._ZZ4StopvE3__c_0
                0x0000080d        0xa Marlin_main.o
 .progmem.data._ZL9echomagic
                0x00000817        0x6 planner.o
 .progmem.data._ZZ16plan_buffer_lineRKfS0_S0_S0_fRKhE3__c
                0x0000081d       0x1a planner.o
 .progmem.data._ZZ16plan_buffer_lineRKfS0_S0_S0_fRKhE3__c_0
                0x00000837       0x1e planner.o
 .progmem.data._ZZN10SdBaseFile10make83NameEPKcPhPS1_E3__c
                0x00000855       0x10 SdBaseFile.o
 .progmem.data._ZL9echomagic
                0x00000865        0x6 stepper.o
 .progmem.data._ZZ16checkHitEndstopsvE3__c
                0x0000086b        0xf stepper.o
 .progmem.data._ZZ16checkHitEndstopsvE3__c_0
                0x0000087a        0x4 stepper.o
 .progmem.data._ZZ16checkHitEndstopsvE3__c_1
                0x0000087e       0x10 stepper.o
 .progmem.data._ZZ16checkHitEndstopsvE3__c_2
                0x0000088e        0x4 stepper.o
 .progmem.data._ZZ16checkHitEndstopsvE3__c_3
                0x00000892       0x10 stepper.o
 .progmem.data._ZZ16checkHitEndstopsvE3__c_4
                0x000008a2        0x4 stepper.o
 .progmem.data._ZZ16checkHitEndstopsvE3__c_5
                0x000008a6       0x10 stepper.o
 .progmem.data._ZL22speed_lookuptable_fast
                0x000008b6      0x400 stepper.o
 .progmem.data._ZL22speed_lookuptable_slow
                0x00000cb6      0x400 stepper.o
 .progmem.data._ZZ12PID_autotunefiiE3__c
                0x000010b6        0x8 temperature.o
 .progmem.data._ZZ12PID_autotunefiiE3__c_0
                0x000010be        0x5 temperature.o
 .progmem.data._ZZ12PID_autotunefiiE3__c_1
                0x000010c3        0x7 temperature.o
 .progmem.data._ZZ12PID_autotunefiiE3__c_2
                0x000010ca        0x7 temperature.o
 .progmem.data._ZZ12PID_autotunefiiE3__c_3
                0x000010d1        0x6 temperature.o
 .progmem.data._ZZ12PID_autotunefiiE3__c_4
                0x000010d7        0x6 temperature.o
 .progmem.data._ZZ12PID_autotunefiiE3__c_5
                0x000010dd        0xd temperature.o
 .progmem.data._ZZ12PID_autotunefiiE3__c_6
                0x000010ea        0x6 temperature.o
 .progmem.data._ZZ12PID_autotunefiiE3__c_7
                0x000010f0        0x6 temperature.o
 .progmem.data._ZZ12PID_autotunefiiE3__c_8
                0x000010f6        0x6 temperature.o
 .progmem.data._ZZ12PID_autotunefiiE3__c_9
                0x000010fc       0x2a temperature.o
 .progmem.data._ZZ12PID_autotunefiiE3__c_10
                0x00001126        0x6 temperature.o
 .progmem.data._ZZ12PID_autotunefiiE3__c_11
                0x0000112c        0x6 temperature.o
 .progmem.data._ZZ12PID_autotunefiiE3__c_12
                0x00001132        0x4 temperature.o
 .progmem.data._ZZ12PID_autotunefiiE3__c_13
                0x00001136       0x1d temperature.o
 .progmem.data._ZZ12PID_autotunefiiE3__c_14
                0x00001153       0x4c temperature.o
 .progmem.data._ZL10errormagic
                0x0000119f        0x7 temperature.o
 .progmem.data._ZZL11analog2tempihE3__c
                0x000011a6       0x1d temperature.o
 .progmem.data._ZZ14max_temp_errorhE3__c
                0x000011c3       0x2d temperature.o
 .progmem.data._ZZ14max_temp_errorhE3__c_0
                0x000011f0        0xd temperature.o
 .progmem.data._ZZ14min_temp_errorhE3__c
                0x000011fd       0x2d temperature.o
 .progmem.data._ZZ14min_temp_errorhE3__c_0
                0x0000122a        0xd temperature.o
 .progmem.data._ZZL13lcd_main_menuvE3__c
                0x00001237        0xc ultralcd.o
 .progmem.data._ZZL13lcd_main_menuvE3__c_0
                0x00001243        0x5 ultralcd.o
 .progmem.data._ZZL13lcd_main_menuvE3__c_1
                0x00001248        0x8 ultralcd.o
 .progmem.data._ZZL13lcd_main_menuvE3__c_2
                0x00001250        0x8 ultralcd.o
 .progmem.data._ZZL13lcd_main_menuvE3__c_3
                0x00001258        0xc ultralcd.o
 .progmem.data._ZZL13lcd_main_menuvE3__c_4
                0x00001264        0xd ultralcd.o
 .progmem.data._ZZL13lcd_main_menuvE3__c_5
                0x00001271        0xb ultralcd.o
 .progmem.data._ZZL13lcd_main_menuvE3__c_6
                0x0000127c        0xe ultralcd.o
 .progmem.data._ZZL13lcd_main_menuvE3__c_7
                0x0000128a        0x8 ultralcd.o
 .progmem.data._ZZL15lcd_sdcard_menuvE3__c
                0x00001292        0x5 ultralcd.o
 .progmem.data._ZZL15lcd_sdcard_menuvE3__c_0
                0x00001297        0x4 ultralcd.o
 .progmem.data._ZZL18menu_action_sdfilePKcPcE3__c
                0x0000129b        0x7 ultralcd.o
 .progmem.data._ZZL18menu_action_sdfilePKcPcE3__c_0
                0x000012a2        0x4 ultralcd.o
 .progmem.data._ZZL15lcd_sdcard_stopvE3__c
                0x000012a6        0xc ultralcd.o
 .progmem.data._ZZL16lcd_control_menuvE3__c
                0x000012b2        0x5 ultralcd.o
 .progmem.data._ZZL16lcd_control_menuvE3__c_0
                0x000012b7        0xc ultralcd.o
 .progmem.data._ZZL16lcd_control_menuvE3__c_1
                0x000012c3        0x7 ultralcd.o
 .progmem.data._ZZL16lcd_control_menuvE3__c_2
                0x000012ca       0x11 ultralcd.o
 .progmem.data._ZZL23lcd_control_motion_menuvE3__c
                0x000012db        0x8 ultralcd.o
 .progmem.data._ZZL23lcd_control_motion_menuvE3__c_0
                0x000012e3        0x6 ultralcd.o
 .progmem.data._ZZL23lcd_control_motion_menuvE3__c_1
                0x000012e9        0x6 ultralcd.o
 .progmem.data._ZZL23lcd_control_motion_menuvE3__c_2
                0x000012ef        0x9 ultralcd.o
 .progmem.data._ZZL23lcd_control_motion_menuvE3__c_3
                0x000012f8        0x9 ultralcd.o
 .progmem.data._ZZL23lcd_control_motion_menuvE3__c_4
                0x00001301        0x8 ultralcd.o
 .progmem.data._ZZL23lcd_control_motion_menuvE3__c_5
                0x00001309        0x8 ultralcd.o
 .progmem.data._ZZL23lcd_control_motion_menuvE3__c_6
                0x00001311        0x8 ultralcd.o
 .progmem.data._ZZL23lcd_control_motion_menuvE3__c_7
                0x00001319        0x8 ultralcd.o
 .progmem.data._ZZL23lcd_control_motion_menuvE3__c_8
                0x00001321        0x7 ultralcd.o
 .progmem.data._ZZL23lcd_control_motion_menuvE3__c_9
                0x00001328        0x7 ultralcd.o
 .progmem.data._ZZL23lcd_control_motion_menuvE3__c_10
                0x0000132f        0x7 ultralcd.o
 .progmem.data._ZZL23lcd_control_motion_menuvE3__c_11
                0x00001336        0x7 ultralcd.o
 .progmem.data._ZZL23lcd_control_motion_menuvE3__c_12
                0x0000133d        0x7 ultralcd.o
 .progmem.data._ZZL23lcd_control_motion_menuvE3__c_13
                0x00001344        0x7 ultralcd.o
 .progmem.data._ZZL23lcd_control_motion_menuvE3__c_14
                0x0000134b        0x7 ultralcd.o
 .progmem.data._ZZL23lcd_control_motion_menuvE3__c_15
                0x00001352        0x7 ultralcd.o
 .progmem.data._ZZL23lcd_control_motion_menuvE3__c_16
                0x00001359        0x5 ultralcd.o
 .progmem.data._ZZL23lcd_control_motion_menuvE3__c_17
                0x0000135e        0x5 ultralcd.o
 .progmem.data._ZZL23lcd_control_motion_menuvE3__c_18
                0x00001363        0xa ultralcd.o
 .progmem.data._ZZL23lcd_control_motion_menuvE3__c_19
                0x0000136d        0xa ultralcd.o
 .progmem.data._ZZL23lcd_control_motion_menuvE3__c_20
                0x00001377        0x7 ultralcd.o
 .progmem.data._ZZL23lcd_control_motion_menuvE3__c_21
                0x0000137e        0x7 ultralcd.o
 .progmem.data._ZZL23lcd_control_motion_menuvE3__c_22
                0x00001385        0x7 ultralcd.o
 .progmem.data._ZZL23lcd_control_motion_menuvE3__c_23
                0x0000138c        0x7 ultralcd.o
 .progmem.data._ZZL23lcd_control_motion_menuvE3__c_24
                0x00001393        0x7 ultralcd.o
 .progmem.data._ZZL23lcd_control_motion_menuvE3__c_25
                0x0000139a        0x7 ultralcd.o
 .progmem.data._ZZL23lcd_control_motion_menuvE3__c_26
                0x000013a1        0x7 ultralcd.o
 .progmem.data._ZZL23lcd_control_motion_menuvE3__c_27
                0x000013a8        0x7 ultralcd.o
 .progmem.data._ZZL23lcd_control_motion_menuvE3__c_28
                0x000013af        0xa ultralcd.o
 .progmem.data._ZZL23lcd_control_motion_menuvE3__c_29
                0x000013b9        0xa ultralcd.o
 .progmem.data._ZZL23lcd_control_motion_menuvE3__c_30
                0x000013c3        0xa ultralcd.o
 .progmem.data._ZZL23lcd_control_motion_menuvE3__c_31
                0x000013cd        0xa ultralcd.o
 .progmem.data._ZZL23lcd_control_motion_menuvE3__c_32
                0x000013d7        0xa ultralcd.o
 .progmem.data._ZZL23lcd_control_motion_menuvE3__c_33
                0x000013e1        0xa ultralcd.o
 .progmem.data._ZZL23lcd_control_motion_menuvE3__c_34
                0x000013eb        0xa ultralcd.o
 .progmem.data._ZZL23lcd_control_motion_menuvE3__c_35
                0x000013f5        0xa ultralcd.o
 .progmem.data._ZZL23lcd_control_motion_menuvE3__c_36
                0x000013ff        0xa ultralcd.o
 .progmem.data._ZZL23lcd_control_motion_menuvE3__c_37
                0x00001409        0xa ultralcd.o
 .progmem.data._ZZL28lcd_control_temperature_menuvE3__c
                0x00001413        0x8 ultralcd.o
 .progmem.data._ZZL28lcd_control_temperature_menuvE3__c_0
                0x0000141b        0x7 ultralcd.o
 .progmem.data._ZZL28lcd_control_temperature_menuvE3__c_1
                0x00001422        0x7 ultralcd.o
 .progmem.data._ZZL28lcd_control_temperature_menuvE3__c_2
                0x00001429        0x8 ultralcd.o
 .progmem.data._ZZL28lcd_control_temperature_menuvE3__c_3
                0x00001431        0x8 ultralcd.o
 .progmem.data._ZZL28lcd_control_temperature_menuvE3__c_4
                0x00001439        0xa ultralcd.o
 .progmem.data._ZZL28lcd_control_temperature_menuvE3__c_5
                0x00001443        0xa ultralcd.o
 .progmem.data._ZZL28lcd_control_temperature_menuvE3__c_6
                0x0000144d        0x9 ultralcd.o
 .progmem.data._ZZL28lcd_control_temperature_menuvE3__c_7
                0x00001456        0x4 ultralcd.o
 .progmem.data._ZZL28lcd_control_temperature_menuvE3__c_8
                0x0000145a        0x4 ultralcd.o
 .progmem.data._ZZL28lcd_control_temperature_menuvE3__c_9
                0x0000145e        0x4 ultralcd.o
 .progmem.data._ZZL28lcd_control_temperature_menuvE3__c_10
                0x00001462        0x4 ultralcd.o
 .progmem.data._ZZL28lcd_control_temperature_menuvE3__c_12
                0x00001466        0x7 ultralcd.o
 .progmem.data._ZZL28lcd_control_temperature_menuvE3__c_13
                0x0000146d        0x7 ultralcd.o
 .progmem.data._ZZL28lcd_control_temperature_menuvE3__c_14
                0x00001474        0x7 ultralcd.o
 .progmem.data._ZZL28lcd_control_temperature_menuvE3__c_15
                0x0000147b        0x7 ultralcd.o
 .progmem.data._ZZL28lcd_control_temperature_menuvE3__c_16
                0x00001482        0x8 ultralcd.o
 .progmem.data._ZZL28lcd_control_temperature_menuvE3__c_17
                0x0000148a        0x8 ultralcd.o
 .progmem.data._ZZL28lcd_control_temperature_menuvE3__c_18
                0x00001492        0x6 ultralcd.o
 .progmem.data._ZZL28lcd_control_temperature_menuvE3__c_19
                0x00001498        0x6 ultralcd.o
 .progmem.data._ZZL28lcd_control_temperature_menuvE3__c_20
                0x0000149e        0x6 ultralcd.o
 .progmem.data._ZZL28lcd_control_temperature_menuvE3__c_21
                0x000014a4        0x6 ultralcd.o
 .progmem.data._ZZL28lcd_control_temperature_menuvE3__c_22
                0x000014aa        0x6 ultralcd.o
 .progmem.data._ZZL28lcd_control_temperature_menuvE3__c_23
                0x000014b0        0x6 ultralcd.o
 .progmem.data._ZZL28lcd_control_temperature_menuvE3__c_24
                0x000014b6        0x6 ultralcd.o
 .progmem.data._ZZL28lcd_control_temperature_menuvE3__c_25
                0x000014bc        0x6 ultralcd.o
 .progmem.data._ZZL28lcd_control_temperature_menuvE3__c_26
                0x000014c2       0x11 ultralcd.o
 .progmem.data._ZZL28lcd_control_temperature_menuvE3__c_27
                0x000014d3       0x11 ultralcd.o
 .progmem.data._ZZL49lcd_control_temperature_preheat_abs_settings_menuvE3__c
                0x000014e4        0xc ultralcd.o
 .progmem.data._ZZL49lcd_control_temperature_preheat_abs_settings_menuvE3__c_0
                0x000014f0        0xa ultralcd.o
 .progmem.data._ZZL49lcd_control_temperature_preheat_abs_settings_menuvE3__c_1
                0x000014fa        0xa ultralcd.o
 .progmem.data._ZZL49lcd_control_temperature_preheat_abs_settings_menuvE3__c_2
                0x00001504        0x7 ultralcd.o
 .progmem.data._ZZL49lcd_control_temperature_preheat_abs_settings_menuvE3__c_3
                0x0000150b        0x7 ultralcd.o
 .progmem.data._ZZL49lcd_control_temperature_preheat_pla_settings_menuvE3__c
                0x00001512        0xc ultralcd.o
 .progmem.data._ZZL49lcd_control_temperature_preheat_pla_settings_menuvE3__c_0
                0x0000151e        0xa ultralcd.o
 .progmem.data._ZZL49lcd_control_temperature_preheat_pla_settings_menuvE3__c_1
                0x00001528        0xa ultralcd.o
 .progmem.data._ZZL49lcd_control_temperature_preheat_pla_settings_menuvE3__c_2
                0x00001532        0x7 ultralcd.o
 .progmem.data._ZZL49lcd_control_temperature_preheat_pla_settings_menuvE3__c_3
                0x00001539        0x7 ultralcd.o
 .progmem.data._ZZL16lcd_prepare_menuvE3__c
                0x00001540        0x5 ultralcd.o
 .progmem.data._ZZL16lcd_prepare_menuvE3__c_0
                0x00001545       0x11 ultralcd.o
 .progmem.data._ZZL16lcd_prepare_menuvE3__c_1
                0x00001556        0x4 ultralcd.o
 .progmem.data._ZZL16lcd_prepare_menuvE3__c_2
                0x0000155a        0xa ultralcd.o
 .progmem.data._ZZL16lcd_prepare_menuvE3__c_3
                0x00001564        0x4 ultralcd.o
 .progmem.data._ZZL16lcd_prepare_menuvE3__c_4
                0x00001568        0xc ultralcd.o
 .progmem.data._ZZL16lcd_prepare_menuvE3__c_5
                0x00001574        0xc ultralcd.o
 .progmem.data._ZZL16lcd_prepare_menuvE3__c_6
                0x00001580        0x9 ultralcd.o
 .progmem.data._ZZL16lcd_prepare_menuvE3__c_7
                0x00001589       0x11 ultralcd.o
 .progmem.data._ZZL16lcd_prepare_menuvE3__c_8
                0x0000159a        0x4 ultralcd.o
 .progmem.data._ZZL16lcd_prepare_menuvE3__c_9
                0x0000159e       0x10 ultralcd.o
 .progmem.data._ZZL16lcd_prepare_menuvE3__c_10
                0x000015ae        0x4 ultralcd.o
 .progmem.data._ZZL16lcd_prepare_menuvE3__c_11
                0x000015b2        0xa ultralcd.o
 .progmem.data._ZZL13lcd_move_menuvE3__c
                0x000015bc        0x8 ultralcd.o
 .progmem.data._ZZL13lcd_move_menuvE3__c_0
                0x000015c4        0xa ultralcd.o
 .progmem.data._ZZL13lcd_move_menuvE3__c_1
                0x000015ce        0x9 ultralcd.o
 .progmem.data._ZZL13lcd_move_menuvE3__c_2
                0x000015d7        0xb ultralcd.o
 .progmem.data._ZZL18lcd_move_menu_axisvE3__c
                0x000015e2        0xa ultralcd.o
 .progmem.data._ZZL18lcd_move_menu_axisvE3__c_0
                0x000015ec        0x7 ultralcd.o
 .progmem.data._ZZL18lcd_move_menu_axisvE3__c_1
                0x000015f3        0x7 ultralcd.o
 .progmem.data._ZZL18lcd_move_menu_axisvE3__c_2
                0x000015fa        0x7 ultralcd.o
 .progmem.data._ZZL18lcd_move_menu_axisvE3__c_3
                0x00001601        0x9 ultralcd.o
 .progmem.data._ZZL10lcd_move_evE3__c
                0x0000160a        0x9 ultralcd.o
 .progmem.data._ZZL10lcd_move_zvE3__c
                0x00001613        0x2 ultralcd.o
 .progmem.data._ZZL10lcd_move_yvE3__c
                0x00001615        0x2 ultralcd.o
 .progmem.data._ZZL10lcd_move_xvE3__c
                0x00001617        0x2 ultralcd.o
 .progmem.data._ZZL13lcd_tune_menuvE3__c
                0x00001619        0x5 ultralcd.o
 .progmem.data._ZZL13lcd_tune_menuvE3__c_0
                0x0000161e        0x6 ultralcd.o
 .progmem.data._ZZL13lcd_tune_menuvE3__c_1
                0x00001624        0x6 ultralcd.o
 .progmem.data._ZZL13lcd_tune_menuvE3__c_2
                0x0000162a        0x7 ultralcd.o
 .progmem.data._ZZL13lcd_tune_menuvE3__c_3
                0x00001631        0x7 ultralcd.o
 .progmem.data._ZZL13lcd_tune_menuvE3__c_4
                0x00001638        0x8 ultralcd.o
 .progmem.data._ZZL13lcd_tune_menuvE3__c_5
                0x00001640        0x8 ultralcd.o
 .progmem.data._ZZL13lcd_tune_menuvE3__c_6
                0x00001648        0xa ultralcd.o
 .progmem.data._ZZL13lcd_tune_menuvE3__c_7
                0x00001652        0xa ultralcd.o
 .progmem.data._ZZL13lcd_tune_menuvE3__c_8
                0x0000165c        0x5 ultralcd.o
 .progmem.data._ZZL13lcd_tune_menuvE3__c_9
                0x00001661        0x5 ultralcd.o
 .progmem.data._ZZL32lcd_implementation_status_screenvE3__c
                0x00001666        0x3 ultralcd.o
 .progmem.data._ZZL32lcd_implementation_status_screenvE3__c_0
                0x00001669        0x3 ultralcd.o
 .progmem.data._ZZL32lcd_implementation_status_screenvE3__c_1
                0x0000166c        0x3 ultralcd.o
 .progmem.data._ZZL32lcd_implementation_status_screenvE3__c_2
                0x0000166f        0x4 ultralcd.o
 .progmem.data._ZZL32lcd_implementation_status_screenvE3__c_3
                0x00001673        0x6 ultralcd.o
 .progmem.data._ZZ10lcd_updatevE3__c
                0x00001679        0xe ultralcd.o
 .progmem.data._ZZ10lcd_updatevE3__c_0
                0x00001687        0xd ultralcd.o
 .progmem.data  0x00001694      0x120 C:\Users\Shady\Documents\Atmel Studio\arduinoCoreMega\libcore.a(wiring_digital.c.o)
                0x00001694                port_to_mode_PGM
                0x000016ae                port_to_output_PGM
                0x000016c8                port_to_input_PGM
                0x000016e2                digital_pin_to_port_PGM
                0x00001728                digital_pin_to_bit_mask_PGM
                0x0000176e                digital_pin_to_timer_PGM
 .progmem.data  0x000017b4        0x1 C:\Users\Shady\Documents\Atmel Studio\arduinoCoreMega\libcore.a(Tone.cpp.o)
 .progmem.data  0x000017b5       0x3b c:/program files (x86)/atmel/atmel toolchain/avr8 gcc/native/3.4.2.1002/avr8-gnu-toolchain/bin/../lib/gcc/avr/4.7.2/../../../../avr/lib/avr6\libc.a(strtod.o)
                0x000017f0                . = ALIGN (0x2)
                0x000017f0                __trampolines_start = .
 *(.trampolines)
 .trampolines   0x000017f0        0x0 linker stubs
 *(.trampolines*)
                0x000017f0                __trampolines_end = .
 *(.jumptables)
 *(.jumptables*)
 *(.lowtext)
 *(.lowtext*)
                0x000017f0                __ctors_start = .
 *(.ctors)
 .ctors         0x000017f0        0x2 libs/Wire.o
 .ctors         0x000017f2        0x2 Marlin_main.o
 .ctors         0x000017f4        0x2 ultralcd.o
                0x000017f6                __ctors_end = .
                0x000017f6                __dtors_start = .
 *(.dtors)
 .dtors         0x000017f6        0x2 Marlin_main.o
                0x000017f8                __dtors_end = .
 SORT(*)(.ctors)
 SORT(*)(.dtors)
 *(.init0)
 .init0         0x000017f8        0x0 c:/program files (x86)/atmel/atmel toolchain/avr8 gcc/native/3.4.2.1002/avr8-gnu-toolchain/bin/../lib/gcc/avr/4.7.2/../../../../avr/lib/avr6/crtm2560.o
                0x000017f8                __init
 *(.init0)
 *(.init1)
 *(.init1)
 *(.init2)
 .init2         0x000017f8       0x10 c:/program files (x86)/atmel/atmel toolchain/avr8 gcc/native/3.4.2.1002/avr8-gnu-toolchain/bin/../lib/gcc/avr/4.7.2/../../../../avr/lib/avr6/crtm2560.o
 *(.init2)
 *(.init3)
 *(.init3)
 *(.init4)
 .init4         0x00001808       0x1a c:/program files (x86)/atmel/atmel toolchain/avr8 gcc/native/3.4.2.1002/avr8-gnu-toolchain/bin/../lib/gcc/avr/4.7.2/avr6\libgcc.a(_copy_data.o)
                0x00001808                __do_copy_data
 .init4         0x00001822       0x10 c:/program files (x86)/atmel/atmel toolchain/avr8 gcc/native/3.4.2.1002/avr8-gnu-toolchain/bin/../lib/gcc/avr/4.7.2/avr6\libgcc.a(_clear_bss.o)
                0x00001822                __do_clear_bss
 *(.init4)
 *(.init5)
 *(.init5)
 *(.init6)
 .init6         0x00001832       0x20 c:/program files (x86)/atmel/atmel toolchain/avr8 gcc/native/3.4.2.1002/avr8-gnu-toolchain/bin/../lib/gcc/avr/4.7.2/avr6\libgcc.a(_ctors.o)
                0x00001832                __do_global_ctors
 *(.init6)
 *(.init7)
 *(.init7)
 *(.init8)
 *(.init8)
 *(.init9)
 .init9         0x00001852        0x8 c:/program files (x86)/atmel/atmel toolchain/avr8 gcc/native/3.4.2.1002/avr8-gnu-toolchain/bin/../lib/gcc/avr/4.7.2/../../../../avr/lib/avr6/crtm2560.o
 *(.init9)
 *(.text)
 .text          0x0000185a        0x4 c:/program files (x86)/atmel/atmel toolchain/avr8 gcc/native/3.4.2.1002/avr8-gnu-toolchain/bin/../lib/gcc/avr/4.7.2/../../../../avr/lib/avr6/crtm2560.o
                0x0000185a                __vector_38
                0x0000185a                __vector_28
                0x0000185a                __vector_1
                0x0000185a                __vector_32
                0x0000185a                __vector_34
                0x0000185a                __vector_24
                0x0000185a                __vector_12
                0x0000185a                __vector_55
                0x0000185a                __vector_46
                0x0000185a                __bad_interrupt
                0x0000185a                __vector_6
                0x0000185a                __vector_31
                0x0000185a                __vector_35
                0x0000185a                __vector_3
                0x0000185a                __vector_30
                0x0000185a                __vector_45
                0x0000185a                __vector_11
                0x0000185a                __vector_54
                0x0000185a                __vector_19
                0x0000185a                __vector_56
                0x0000185a                __vector_7
                0x0000185a                __vector_49
                0x0000185a                __vector_41
                0x0000185a                __vector_43
                0x0000185a                __vector_27
                0x0000185a                __vector_5
                0x0000185a                __vector_33
                0x0000185a                __vector_47
                0x0000185a                __vector_52
                0x0000185a                __vector_37
                0x0000185a                __vector_4
                0x0000185a                __vector_44
                0x0000185a                __vector_51
                0x0000185a                __vector_9
                0x0000185a                __vector_2
                0x0000185a                __vector_21
                0x0000185a                __vector_15
                0x0000185a                __vector_36
                0x0000185a                __vector_29
                0x0000185a                __vector_40
                0x0000185a                __vector_8
                0x0000185a                __vector_26
                0x0000185a                __vector_48
                0x0000185a                __vector_14
                0x0000185a                __vector_53
                0x0000185a                __vector_10
                0x0000185a                __vector_50
                0x0000185a                __vector_16
                0x0000185a                __vector_18
                0x0000185a                __vector_20
                0x0000185a                __vector_42
                0x0000185e                . = ALIGN (0x2)
 *(.text.*)
 .text._ZN5I2CIOC2Ev
                0x0000185e        0xe libs/I2CIO.o
                0x0000185e                _ZN5I2CIOC2Ev
                0x0000185e                _ZN5I2CIOC1Ev
 .text._ZN5I2CIO5beginEh
                0x0000186c       0x3a libs/I2CIO.o
                0x0000186c                _ZN5I2CIO5beginEh
 .text._ZN5I2CIO8portModeEh
                0x000018a6       0x18 libs/I2CIO.o
                0x000018a6                _ZN5I2CIO8portModeEh
 .text._ZN5I2CIO5writeEh
                0x000018be       0x4e libs/I2CIO.o
                0x000018be                _ZN5I2CIO5writeEh
 .text._ZN3LCD15setBacklightPinEh13t_backlighPol
                0x0000190c        0x2 libs/LCD.o
                0x0000190c                _ZN3LCD15setBacklightPinEh13t_backlighPol
 .text._ZN3LCD12setBacklightEh
                0x0000190e        0x2 libs/LCD.o
                0x0000190e                _ZN3LCD12setBacklightEh
 .text._ZN3LCD5writeEh
                0x00001910       0x16 libs/LCD.o
                0x00001910                _ZN3LCD5writeEh
 .text._ZN3LCDC2Ev
                0x00001926       0x10 libs/LCD.o
                0x00001926                _ZN3LCDC1Ev
                0x00001926                _ZN3LCDC2Ev
 .text._ZN3LCD9backlightEv
                0x00001936       0x12 libs/LCD.o
                0x00001936                _ZN3LCD9backlightEv
 .text._ZN3LCD7commandEh
                0x00001948       0x12 libs/LCD.o
                0x00001948                _ZN3LCD7commandEh
 .text._ZN3LCD10createCharEhPh
                0x0000195a       0x6a libs/LCD.o
                0x0000195a                _ZN3LCD10createCharEhPh
 .text._ZN3LCD7displayEv
                0x000019c4        0xe libs/LCD.o
                0x000019c4                _ZN3LCD7displayEv
 .text._ZN3LCD9setCursorEhh
                0x000019d2       0x76 libs/LCD.o
                0x000019d2                _ZN3LCD9setCursorEhh
 .text._ZN3LCD5clearEv
                0x00001a48        0xc libs/LCD.o
                0x00001a48                _ZN3LCD5clearEv
 .text._ZN3LCD5beginEhhh
                0x00001a54       0xe4 libs/LCD.o
                0x00001a54                _ZN3LCD5beginEhhh
 .text._ZN17LiquidCrystal_I2C15setBacklightPinEh13t_backlighPol
                0x00001b38       0x2a libs/LiquidCrystal_I2C.o
                0x00001b38                _ZN17LiquidCrystal_I2C15setBacklightPinEh13t_backlighPol
 .text._ZN17LiquidCrystal_I2C12setBacklightEh
                0x00001b62       0x2c libs/LiquidCrystal_I2C.o
                0x00001b62                _ZN17LiquidCrystal_I2C12setBacklightEh
 .text._ZN17LiquidCrystal_I2C4initEv
                0x00001b8e       0x40 libs/LiquidCrystal_I2C.o
                0x00001b8e                _ZN17LiquidCrystal_I2C4initEv
 .text._ZN17LiquidCrystal_I2C5beginEhhh
                0x00001bce       0x2a libs/LiquidCrystal_I2C.o
                0x00001bce                _ZN17LiquidCrystal_I2C5beginEhhh
 .text._ZN17LiquidCrystal_I2C6configEhhhhhhhh
                0x00001bf8       0x82 libs/LiquidCrystal_I2C.o
                0x00001bf8                _ZN17LiquidCrystal_I2C6configEhhhhhhhh
 .text._ZN17LiquidCrystal_I2CC2Ehhhhhhhhh13t_backlighPol
                0x00001c7a       0x62 libs/LiquidCrystal_I2C.o
                0x00001c7a                _ZN17LiquidCrystal_I2CC1Ehhhhhhhhh13t_backlighPol
                0x00001c7a                _ZN17LiquidCrystal_I2CC2Ehhhhhhhhh13t_backlighPol
 .text._ZN17LiquidCrystal_I2C11pulseEnableEh
                0x00001cdc       0x32 libs/LiquidCrystal_I2C.o
                0x00001cdc                _ZN17LiquidCrystal_I2C11pulseEnableEh
 .text._ZN17LiquidCrystal_I2C10write4bitsEhh
                0x00001d0e       0x34 libs/LiquidCrystal_I2C.o
                0x00001d0e                _ZN17LiquidCrystal_I2C10write4bitsEhh
 .text._ZN17LiquidCrystal_I2C4sendEhh
                0x00001d42       0x48 libs/LiquidCrystal_I2C.o
                0x00001d42                _ZN17LiquidCrystal_I2C4sendEhh
 .text._ZN10CardReaderC2Ev
                0x00001d8a      0x104 cardreader.o
                0x00001d8a                _ZN10CardReaderC1Ev
                0x00001d8a                _ZN10CardReaderC2Ev
 .text._Z14createFilenamePcRK14directoryEntry
                0x00001e8e       0x32 cardreader.o
                0x00001e8e                _Z14createFilenamePcRK14directoryEntry
 .text._ZN10CardReader6lsDiveEPKc6SdFile
                0x00001ec0      0x3e0 cardreader.o
                0x00001ec0                _ZN10CardReader6lsDiveEPKc6SdFile
 .text._ZN10CardReader2lsEv
                0x000022a0       0x9e cardreader.o
                0x000022a0                _ZN10CardReader2lsEv
 .text._ZN10CardReader6initsdEv
                0x0000233e      0x21a cardreader.o
                0x0000233e                _ZN10CardReader6initsdEv
 .text._ZN10CardReader7releaseEv
                0x00002558        0x8 cardreader.o
                0x00002558                _ZN10CardReader7releaseEv
 .text._ZN10CardReader14startFileprintEv
                0x00002560        0xe cardreader.o
                0x00002560                _ZN10CardReader14startFileprintEv
 .text._ZN10CardReader12pauseSDPrintEv
                0x0000256e        0xa cardreader.o
                0x0000256e                _ZN10CardReader12pauseSDPrintEv
 .text._ZN10CardReader8openFileEPcb
                0x00002578      0x56c cardreader.o
                0x00002578                _ZN10CardReader8openFileEPcb
 .text._ZN10CardReader11openLogFileEPc
                0x00002ae4        0xa cardreader.o
                0x00002ae4                _ZN10CardReader11openLogFileEPc
 .text._ZN10CardReader10removeFileEPc
                0x00002aee      0x362 cardreader.o
                0x00002aee                _ZN10CardReader10removeFileEPc
 .text._ZN10CardReader9getStatusEv
                0x00002e50       0xda cardreader.o
                0x00002e50                _ZN10CardReader9getStatusEv
 .text._ZN10CardReader13write_commandEPc
                0x00002f2a       0xec cardreader.o
                0x00002f2a                _ZN10CardReader13write_commandEPc
 .text._ZN10CardReader14checkautostartEb
                0x00003016      0x208 cardreader.o
                0x00003016                _ZN10CardReader14checkautostartEb
 .text._ZN10CardReader9closefileEv
                0x0000321e       0x2a cardreader.o
                0x0000321e                _ZN10CardReader9closefileEv
 .text._ZN10CardReader11getfilenameEh
                0x00003248       0xc0 cardreader.o
                0x00003248                _ZN10CardReader11getfilenameEh
 .text._ZN10CardReader14getnrfilenamesEv
                0x00003308       0xca cardreader.o
                0x00003308                _ZN10CardReader14getnrfilenamesEv
 .text._ZN10CardReader5chdirEPKc
                0x000033d2      0x1ee cardreader.o
                0x000033d2                _ZN10CardReader5chdirEPKc
 .text._ZN10CardReader5updirEv
                0x000035c0       0xd2 cardreader.o
                0x000035c0                _ZN10CardReader5updirEv
 .text._ZN10CardReader19printingHasFinishedEv
                0x00003692       0x76 cardreader.o
                0x00003692                _ZN10CardReader19printingHasFinishedEv
 .text._Z19Config_ResetDefaultv
                0x00003708      0x2f2 ConfigurationStore.o
                0x00003708                _Z19Config_ResetDefaultv
 .text._ZN7TwoWire9availableEv
                0x000039fa       0x14 libs/Wire.o
                0x000039fa                _ZN7TwoWire9availableEv
 .text._ZN7TwoWire4readEv
                0x00003a0e       0x2a libs/Wire.o
                0x00003a0e                _ZN7TwoWire4readEv
 .text._ZN7TwoWire4peekEv
                0x00003a38       0x22 libs/Wire.o
                0x00003a38                _ZN7TwoWire4peekEv
 .text._ZN7TwoWire5flushEv
                0x00003a5a        0x2 libs/Wire.o
                0x00003a5a                _ZN7TwoWire5flushEv
 .text._ZN7TwoWire5writeEPKhj
                0x00003a5c       0x66 libs/Wire.o
                0x00003a5c                _ZN7TwoWire5writeEPKhj
 .text._ZN7TwoWire5writeEh
                0x00003ac2       0x66 libs/Wire.o
                0x00003ac2                _ZN7TwoWire5writeEh
 .text._ZN7TwoWireC2Ev
                0x00003b28       0x20 libs/Wire.o
                0x00003b28                _ZN7TwoWireC1Ev
                0x00003b28                _ZN7TwoWireC2Ev
 .text._ZN7TwoWire5beginEv
                0x00003b48       0x14 libs/Wire.o
                0x00003b48                _ZN7TwoWire5beginEv
 .text._ZN7TwoWire11requestFromEhhh
                0x00003b5c       0x1a libs/Wire.o
                0x00003b5c                _ZN7TwoWire11requestFromEhhh
 .text._ZN7TwoWire11requestFromEhh
                0x00003b76        0x4 libs/Wire.o
                0x00003b76                _ZN7TwoWire11requestFromEhh
 .text._ZN7TwoWire17beginTransmissionEh
                0x00003b7a       0x14 libs/Wire.o
                0x00003b7a                _ZN7TwoWire17beginTransmissionEh
 .text._ZN7TwoWire15endTransmissionEh
                0x00003b8e       0x26 libs/Wire.o
                0x00003b8e                _ZN7TwoWire15endTransmissionEh
 .text._ZN7TwoWire15endTransmissionEv
                0x00003bb4        0x4 libs/Wire.o
                0x00003bb4                _ZN7TwoWire15endTransmissionEv
 .text._GLOBAL__sub_I__ZN7TwoWire8rxBufferE
                0x00003bb8        0x6 libs/Wire.o
 .text.__vector_25
                0x00003bbe       0x72 MarlinSerial.o
                0x00003bbe                __vector_25
 .text._ZN12MarlinSerial5beginEl
                0x00003c30       0x72 MarlinSerial.o
                0x00003c30                _ZN12MarlinSerial5beginEl
 .text._ZN12MarlinSerial4readEv
                0x00003ca2       0x3e MarlinSerial.o
                0x00003ca2                _ZN12MarlinSerial4readEv
 .text._ZN12MarlinSerial5flushEv
                0x00003ce0       0x12 MarlinSerial.o
                0x00003ce0                _ZN12MarlinSerial5flushEv
 .text._ZN12MarlinSerial11printNumberEmh
                0x00003cf2      0x10e MarlinSerial.o
                0x00003cf2                _ZN12MarlinSerial11printNumberEmh
 .text._ZN12MarlinSerial5printEmi
                0x00003e00       0x18 MarlinSerial.o
                0x00003e00                _ZN12MarlinSerial5printEmi
 .text._ZN12MarlinSerial5printEji
                0x00003e18        0xa MarlinSerial.o
                0x00003e18                _ZN12MarlinSerial5printEji
 .text._ZN12MarlinSerial5printEhi
                0x00003e22        0xc MarlinSerial.o
                0x00003e22                _ZN12MarlinSerial5printEhi
 .text._ZN12MarlinSerial5printEli
                0x00003e2e       0x66 MarlinSerial.o
                0x00003e2e                _ZN12MarlinSerial5printEli
 .text._ZN12MarlinSerial5printEii
                0x00003e94        0xe MarlinSerial.o
                0x00003e94                _ZN12MarlinSerial5printEii
 .text._ZN12MarlinSerial5printEci
                0x00003ea2        0xc MarlinSerial.o
                0x00003ea2                _ZN12MarlinSerial5printEci
 .text._ZN12MarlinSerial7printlnEv
                0x00003eae       0x1e MarlinSerial.o
                0x00003eae                _ZN12MarlinSerial7printlnEv
 .text._ZN12MarlinSerial7printlnEji
                0x00003ecc       0x12 MarlinSerial.o
                0x00003ecc                _ZN12MarlinSerial7printlnEji
 .text._ZN12MarlinSerial10printFloatEdh
                0x00003ede      0x158 MarlinSerial.o
                0x00003ede                _ZN12MarlinSerial10printFloatEdh
 .text._ZN12MarlinSerial5printEdi
                0x00004036        0x4 MarlinSerial.o
                0x00004036                _ZN12MarlinSerial5printEdi
 .text._ZL8homeaxisi
                0x0000403a      0x340 Marlin_main.o
 .text._Z41__static_initialization_and_destruction_0ii
                0x0000437a       0xd0 Marlin_main.o
 .text._Z17serial_echopair_PPKcf
                0x0000444a       0x34 Marlin_main.o
                0x0000444a                _Z17serial_echopair_PPKcf
 .text.freeMemory
                0x0000447e       0x42 Marlin_main.o
                0x0000447e                freeMemory
 .text._Z12enquecommandPKc
                0x000044c0      0x11a Marlin_main.o
                0x000044c0                _Z12enquecommandPKc
 .text._Z14enquecommand_PPKc
                0x000045da      0x11a Marlin_main.o
                0x000045da                _Z14enquecommand_PPKc
 .text._Z15setup_powerholdv
                0x000046f4        0xa Marlin_main.o
                0x000046f4                _Z15setup_powerholdv
 .text._Z7suicidev
                0x000046fe        0x6 Marlin_main.o
                0x000046fe                _Z7suicidev
 .text.setup    0x00004704      0x3aa Marlin_main.o
                0x00004704                setup
 .text._Z10code_valuev
                0x00004aae       0x12 Marlin_main.o
                0x00004aae                _Z10code_valuev
 .text._Z15code_value_longv
                0x00004ac0       0x16 Marlin_main.o
                0x00004ac0                _Z15code_value_longv
 .text._Z9code_seenc
                0x00004ad6       0x36 Marlin_main.o
                0x00004ad6                _Z9code_seenc
 .text._Z11ClearToSendv
                0x00004b0c       0x62 Marlin_main.o
                0x00004b0c                _Z11ClearToSendv
 .text._Z24FlushSerialRequestResendv
                0x00004b6e       0x66 Marlin_main.o
                0x00004b6e                _Z24FlushSerialRequestResendv
 .text._Z11get_commandv
                0x00004bd4      0x942 Marlin_main.o
                0x00004bd4                _Z11get_commandv
 .text._Z15get_coordinatesv
                0x00005516      0x11e Marlin_main.o
                0x00005516                _Z15get_coordinatesv
 .text._Z19get_arc_coordinatesv
                0x00005634       0x5c Marlin_main.o
                0x00005634                _Z19get_arc_coordinatesv
 .text._Z26clamp_to_software_endstopsPf
                0x00005690      0x124 Marlin_main.o
                0x00005690                _Z26clamp_to_software_endstopsPf
 .text._Z12prepare_movev
                0x000057b4      0x1aa Marlin_main.o
                0x000057b4                _Z12prepare_movev
 .text._Z16prepare_arc_movec
                0x0000595e      0x166 Marlin_main.o
                0x0000595e                _Z16prepare_arc_movec
 .text._Z4killv
                0x00005ac4       0x78 Marlin_main.o
                0x00005ac4                _Z4killv
 .text._Z17manage_inactivityv
                0x00005b3c       0xc8 Marlin_main.o
                0x00005b3c                _Z17manage_inactivityv
 .text._Z4Stopv
                0x00005c04       0x98 Marlin_main.o
                0x00005c04                _Z4Stopv
 .text._Z9IsStoppedv
                0x00005c9c        0x6 Marlin_main.o
                0x00005c9c                _Z9IsStoppedv
 .text._Z17setTargetedHotendi
                0x00005ca2      0x11e Marlin_main.o
                0x00005ca2                _Z17setTargetedHotendi
 .text._Z16process_commandsv
                0x00005dc0     0x25ec Marlin_main.o
                0x00005dc0                _Z16process_commandsv
 .text.loop     0x000083ac      0x132 Marlin_main.o
                0x000083ac                loop
 .text._GLOBAL__sub_I_card
                0x000084de        0xc Marlin_main.o
 .text._GLOBAL__sub_D_card
                0x000084ea        0xc Marlin_main.o
 .text._Z6mc_arcPfS_S_hhhffhh
                0x000084f6      0x7a0 motion_control.o
                0x000084f6                _Z6mc_arcPfS_S_hhhffhh
 .text._ZL16next_block_indexa
                0x00008c96        0xa planner.o
 .text._Z29calculate_trapezoid_for_blockP7block_tff
                0x00008ca0      0x3d2 planner.o
                0x00008ca0                _Z29calculate_trapezoid_for_blockP7block_tff
 .text._Z27planner_reverse_pass_kernelP7block_tS0_S0_
                0x00009072      0x11e planner.o
                0x00009072                _Z27planner_reverse_pass_kernelP7block_tS0_S0_
 .text._Z20planner_reverse_passv
                0x00009190       0x8e planner.o
                0x00009190                _Z20planner_reverse_passv
 .text._Z27planner_forward_pass_kernelP7block_tS0_S0_
                0x0000921e      0x106 planner.o
                0x0000921e                _Z27planner_forward_pass_kernelP7block_tS0_S0_
 .text._Z20planner_forward_passv
                0x00009324       0x70 planner.o
                0x00009324                _Z20planner_forward_passv
 .text._Z30planner_recalculate_trapezoidsv
                0x00009394      0x13c planner.o
                0x00009394                _Z30planner_recalculate_trapezoidsv
 .text._Z19planner_recalculatev
                0x000094d0        0x6 planner.o
                0x000094d0                _Z19planner_recalculatev
 .text._Z9plan_initv
                0x000094d6       0x68 planner.o
                0x000094d6                _Z9plan_initv
 .text._Z13getHighESpeedv
                0x0000953e      0x29a planner.o
                0x0000953e                _Z13getHighESpeedv
 .text._Z19check_axes_activityv
                0x000097d8       0x40 planner.o
                0x000097d8                _Z19check_axes_activityv
 .text._Z16plan_buffer_lineRKfS0_S0_S0_fRKh
                0x00009818     0x15b0 planner.o
                0x00009818                _Z16plan_buffer_lineRKfS0_S0_S0_fRKh
 .text._Z17plan_set_positionRKfS0_S0_S0_
                0x0000adc8      0x138 planner.o
                0x0000adc8                _Z17plan_set_positionRKfS0_S0_S0_
 .text._Z19plan_set_e_positionRKf
                0x0000af00       0x34 planner.o
                0x0000af00                _Z19plan_set_e_positionRKf
 .text._Z12movesplannedv
                0x0000af34        0xe planner.o
                0x0000af34                _Z12movesplannedv
 .text._Z20set_extrude_min_tempf
                0x0000af42       0x12 planner.o
                0x0000af42                _Z20set_extrude_min_tempf
 .text._Z24reset_acceleration_ratesv
                0x0000af54       0x88 planner.o
                0x0000af54                _Z24reset_acceleration_ratesv
 .text._ZL7spiInith
                0x0000afdc       0x20 Sd2Card.o
 .text._ZL6spiRecv
                0x0000affc        0xe Sd2Card.o
 .text._ZL7spiSendh
                0x0000b00a        0xa Sd2Card.o
 .text._ZN7Sd2Card14chipSelectHighEv
                0x0000b014        0xa Sd2Card.o
                0x0000b014                _ZN7Sd2Card14chipSelectHighEv
 .text._ZN7Sd2Card13chipSelectLowEv
                0x0000b01e       0x18 Sd2Card.o
                0x0000b01e                _ZN7Sd2Card13chipSelectLowEv
 .text._ZN7Sd2Card8readDataEPhj
                0x0000b036       0xaa Sd2Card.o
                0x0000b036                _ZN7Sd2Card8readDataEPhj
 .text._ZN7Sd2Card10setSckRateEh
                0x0000b0e0       0x16 Sd2Card.o
                0x0000b0e0                _ZN7Sd2Card10setSckRateEh
 .text._ZN7Sd2Card11waitNotBusyEj
                0x0000b0f6       0x36 Sd2Card.o
                0x0000b0f6                _ZN7Sd2Card11waitNotBusyEj
 .text._ZN7Sd2Card11cardCommandEhm
                0x0000b12c       0x9a Sd2Card.o
                0x0000b12c                _ZN7Sd2Card11cardCommandEhm
 .text._ZN7Sd2Card9readBlockEmPh
                0x0000b1c6       0x52 Sd2Card.o
                0x0000b1c6                _ZN7Sd2Card9readBlockEmPh
 .text._ZN7Sd2Card4initEhh
                0x0000b218      0x16c Sd2Card.o
                0x0000b218                _ZN7Sd2Card4initEhh
 .text._ZN7Sd2Card9writeDataEhPKh
                0x0000b384       0x62 Sd2Card.o
                0x0000b384                _ZN7Sd2Card9writeDataEhPKh
 .text._ZN7Sd2Card10writeBlockEmPKh
                0x0000b3e6       0x8a Sd2Card.o
                0x0000b3e6                _ZN7Sd2Card10writeBlockEmPKh
 .text._ZN10SdBaseFile10addClusterEv
                0x0000b470       0x56 SdBaseFile.o
                0x0000b470                _ZN10SdBaseFile10addClusterEv
 .text._ZN10SdBaseFile13addDirClusterEv
                0x0000b4c6      0x11e SdBaseFile.o
                0x0000b4c6                _ZN10SdBaseFile13addDirClusterEv
 .text._ZN10SdBaseFile13cacheDirEntryEh
                0x0000b5e4       0x3c SdBaseFile.o
                0x0000b5e4                _ZN10SdBaseFile13cacheDirEntryEh
 .text._ZN10SdBaseFile7dirNameERK14directoryEntryPc
                0x0000b620       0x46 SdBaseFile.o
                0x0000b620                _ZN10SdBaseFile7dirNameERK14directoryEntryPc
 .text._ZN10SdBaseFile11getFilenameEPc
                0x0000b666       0x3a SdBaseFile.o
                0x0000b666                _ZN10SdBaseFile11getFilenameEPc
 .text._ZN10SdBaseFile10make83NameEPKcPhPS1_
                0x0000b6a0       0xb0 SdBaseFile.o
                0x0000b6a0                _ZN10SdBaseFile10make83NameEPKcPhPS1_
 .text._ZN10SdBaseFile8openRootEP8SdVolume
                0x0000b750       0xc2 SdBaseFile.o
                0x0000b750                _ZN10SdBaseFile8openRootEP8SdVolume
 .text._ZN10SdBaseFile4readEPvj
                0x0000b812      0x242 SdBaseFile.o
                0x0000b812                _ZN10SdBaseFile4readEPvj
 .text._ZN10SdBaseFile4readEv
                0x0000ba54       0x30 SdBaseFile.o
                0x0000ba54                _ZN10SdBaseFile4readEv
 .text._ZN10SdBaseFile7readDirEP14directoryEntryPc
                0x0000ba84      0x11e SdBaseFile.o
                0x0000ba84                _ZN10SdBaseFile7readDirEP14directoryEntryPc
 .text._ZN10SdBaseFile12readDirCacheEv
                0x0000bba2       0x7c SdBaseFile.o
                0x0000bba2                _ZN10SdBaseFile12readDirCacheEv
 .text._ZN10SdBaseFile7seekSetEm
                0x0000bc1e      0x156 SdBaseFile.o
                0x0000bc1e                _ZN10SdBaseFile7seekSetEm
 .text._ZN10SdBaseFile4syncEv
                0x0000bd74       0x92 SdBaseFile.o
                0x0000bd74                _ZN10SdBaseFile4syncEv
 .text._ZN10SdBaseFile5closeEv
                0x0000be06       0x10 SdBaseFile.o
                0x0000be06                _ZN10SdBaseFile5closeEv
 .text._ZN10SdBaseFile8truncateEm
                0x0000be16      0x1b2 SdBaseFile.o
                0x0000be16                _ZN10SdBaseFile8truncateEm
 .text._ZN10SdBaseFile6removeEv
                0x0000bfc8       0x34 SdBaseFile.o
                0x0000bfc8                _ZN10SdBaseFile6removeEv
 .text._ZN10SdBaseFile15openCachedEntryEhh
                0x0000bffc       0xf6 SdBaseFile.o
                0x0000bffc                _ZN10SdBaseFile15openCachedEntryEhh
 .text._ZN10SdBaseFile4openEPS_PKhh
                0x0000c0f2      0x19e SdBaseFile.o
                0x0000c0f2                _ZN10SdBaseFile4openEPS_PKhh
 .text._ZN10SdBaseFile4openEPS_PKch
                0x0000c290      0x17a SdBaseFile.o
                0x0000c290                _ZN10SdBaseFile4openEPS_PKch
 .text._ZN10SdBaseFile6removeEPS_PKc
                0x0000c40a       0x58 SdBaseFile.o
                0x0000c40a                _ZN10SdBaseFile6removeEPS_PKc
 .text._ZN10SdBaseFile5writeEPKvj
                0x0000c462      0x418 SdBaseFile.o
                0x0000c462                _ZN10SdBaseFile5writeEPKvj
 .text._ZN6SdFile5writeEh
                0x0000c87a       0x22 SdFile.o
                0x0000c87a                _ZN6SdFile5writeEh
 .text._ZN6SdFile5writeEPKc
                0x0000c89c       0x18 SdFile.o
                0x0000c89c                _ZN6SdFile5writeEPKc
 .text._ZN8SdVolume10cacheFlushEv
                0x0000c8b4       0x7e SdVolume.o
                0x0000c8b4                _ZN8SdVolume10cacheFlushEv
 .text._ZN8SdVolume13cacheRawBlockEmb
                0x0000c932       0x7a SdVolume.o
                0x0000c932                _ZN8SdVolume13cacheRawBlockEmb
 .text._ZN8SdVolume6fatGetEmPm
                0x0000c9ac      0x136 SdVolume.o
                0x0000c9ac                _ZN8SdVolume6fatGetEmPm
 .text._ZN8SdVolume9chainSizeEmPm
                0x0000cae2       0xe8 SdVolume.o
                0x0000cae2                _ZN8SdVolume9chainSizeEmPm
 .text._ZN8SdVolume6fatPutEmm
                0x0000cbca      0x144 SdVolume.o
                0x0000cbca                _ZN8SdVolume6fatPutEmm
 .text._ZN8SdVolume15allocContiguousEmPm
                0x0000cd0e      0x244 SdVolume.o
                0x0000cd0e                _ZN8SdVolume15allocContiguousEmPm
 .text._ZN8SdVolume9freeChainEm
                0x0000cf52       0xca SdVolume.o
                0x0000cf52                _ZN8SdVolume9freeChainEm
 .text._ZN8SdVolume4initEP7Sd2Cardh
                0x0000d01c      0x2a2 SdVolume.o
                0x0000d01c                _ZN8SdVolume4initEP7Sd2Cardh
 .text._Z16checkHitEndstopsv
                0x0000d2be      0x150 stepper.o
                0x0000d2be                _Z16checkHitEndstopsv
 .text._Z23endstops_hit_on_purposev
                0x0000d40e        0xe stepper.o
                0x0000d40e                _Z23endstops_hit_on_purposev
 .text._Z15enable_endstopsb
                0x0000d41c        0x6 stepper.o
                0x0000d41c                _Z15enable_endstopsb
 .text._Z10st_wake_upv
                0x0000d422        0xc stepper.o
                0x0000d422                _Z10st_wake_upv
 .text.__vector_17
                0x0000d42e      0xefe stepper.o
                0x0000d42e                __vector_17
 .text._Z7st_initv
                0x0000e32c       0xe6 stepper.o
                0x0000e32c                _Z7st_initv
 .text._Z14st_synchronizev
                0x0000e412       0x24 stepper.o
                0x0000e412                _Z14st_synchronizev
 .text._Z15st_set_positionRKlS0_S0_S0_
                0x0000e436       0x78 stepper.o
                0x0000e436                _Z15st_set_positionRKlS0_S0_S0_
 .text._Z17st_set_e_positionRKl
                0x0000e4ae       0x22 stepper.o
                0x0000e4ae                _Z17st_set_e_positionRKl
 .text._Z15st_get_positionh
                0x0000e4d0       0x30 stepper.o
                0x0000e4d0                _Z15st_get_positionh
 .text._Z24finishAndDisableSteppersv
                0x0000e500        0xc stepper.o
                0x0000e500                _Z24finishAndDisableSteppersv
 .text._Z9quickStopv
                0x0000e50c       0x44 stepper.o
                0x0000e50c                _Z9quickStopv
 .text._ZL11analog2tempih
                0x0000e550       0xb0 temperature.o
 .text._ZL31updateTemperaturesFromRawValuesv
                0x0000e600       0x38 temperature.o
 .text._Z9updatePIDv
                0x0000e638       0x2e temperature.o
                0x0000e638                _Z9updatePIDv
 .text._Z14getHeaterPoweri
                0x0000e666       0x18 temperature.o
                0x0000e666                _Z14getHeaterPoweri
 .text._Z13manage_heaterv
                0x0000e67e      0x3e8 temperature.o
                0x0000e67e                _Z13manage_heaterv
 .text._Z7tp_initv
                0x0000ea66      0x102 temperature.o
                0x0000ea66                _Z7tp_initv
 .text._Z8setWatchv
                0x0000eb68        0x2 temperature.o
                0x0000eb68                _Z8setWatchv
 .text._Z14disable_heaterv
                0x0000eb6a       0x2c temperature.o
                0x0000eb6a                _Z14disable_heaterv
 .text._Z12PID_autotunefii
                0x0000eb96      0xbb2 temperature.o
                0x0000eb96                _Z12PID_autotunefii
 .text._Z14max_temp_errorh
                0x0000f748       0x9a temperature.o
                0x0000f748                _Z14max_temp_errorh
 .text._Z14min_temp_errorh
                0x0000f7e2       0x9a temperature.o
                0x0000f7e2                _Z14min_temp_errorh
 .text.__vector_22
                0x0000f87c      0x298 temperature.o
                0x0000f87c                __vector_22
 .text._Z10scalePID_if
                0x0000fb14        0xc temperature.o
                0x0000fb14                _Z10scalePID_if
 .text._Z12unscalePID_if
                0x0000fb20        0xc temperature.o
                0x0000fb20                _Z12unscalePID_if
 .text._Z10scalePID_df
                0x0000fb2c        0xc temperature.o
                0x0000fb2c                _Z10scalePID_df
 .text._Z12unscalePID_df
                0x0000fb38        0xc temperature.o
                0x0000fb38                _Z12unscalePID_df
 .text.twi_init
                0x0000fb44       0x3c twi.o
                0x0000fb44                twi_init
 .text.twi_readFrom
                0x0000fb80       0x8a twi.o
                0x0000fb80                twi_readFrom
 .text.twi_writeTo
                0x0000fc0a       0xa6 twi.o
                0x0000fc0a                twi_writeTo
 .text.twi_transmit
                0x0000fcb0       0x32 twi.o
                0x0000fcb0                twi_transmit
 .text.twi_stop
                0x0000fce2       0x14 twi.o
                0x0000fce2                twi_stop
 .text.twi_releaseBus
                0x0000fcf6        0xc twi.o
                0x0000fcf6                twi_releaseBus
 .text.__vector_39
                0x0000fd02      0x262 twi.o
                0x0000fd02                __vector_39
 .text._ZL20lcd_return_to_statusv
                0x0000ff64       0x1e ultralcd.o
 .text._ZL12lcd_cooldownv
                0x0000ff82       0x12 ultralcd.o
 .text._ZL29menu_action_setting_edit_int3PKcPiii
                0x0000ff94       0x94 ultralcd.o
 .text._ZL31menu_action_setting_edit_float3PKcPfff
                0x00010028       0xb6 ultralcd.o
 .text._ZL31menu_action_setting_edit_float5PKcPfff
                0x000100de       0xee ultralcd.o
 .text._ZL32menu_action_setting_edit_float51PKcPfff
                0x000101cc       0xee ultralcd.o
 .text._ZL32menu_action_setting_edit_float52PKcPfff
                0x000102ba       0xee ultralcd.o
 .text._ZL41menu_action_setting_edit_callback_float52PKcPfffPFvvE
                0x000103a8      0x102 ultralcd.o
 .text._ZL39menu_action_setting_edit_callback_long5PKcPmmmPFvvE
                0x000104aa       0xfa ultralcd.o
 .text._ZL16menu_action_backPFvvE
                0x000105a4       0x1a ultralcd.o
 .text._ZL19menu_action_submenuPFvvE
                0x000105be       0x1a ultralcd.o
 .text._ZL20menu_action_functionPFvvE
                0x000105d8        0x6 ultralcd.o
 .text._ZL35lcd_implementation_drawmenu_generichPKccc
                0x000105de       0x74 ultralcd.o
 .text._ZL12lcd_printPGMPKc
                0x00010652       0x28 ultralcd.o
 .text._ZL18lcd_quick_feedbackv
                0x0001067a       0x48 ultralcd.o
 .text._ZL16lcd_control_menuv
                0x000106c2      0x30e ultralcd.o
 .text._ZL13lcd_move_menuv
                0x000109d0      0x30e ultralcd.o
 .text._ZL18lcd_move_menu_axisv
                0x00010cde      0x448 ultralcd.o
 .text._ZL18lcd_move_menu_01mmv
                0x00011126       0x1a ultralcd.o
 .text._ZL17lcd_move_menu_1mmv
                0x00011140       0x1a ultralcd.o
 .text._ZL18lcd_move_menu_10mmv
                0x0001115a       0x1a ultralcd.o
 .text._ZL13lcd_main_menuv
                0x00011174      0x64c ultralcd.o
 .text._ZL15lcd_sdcard_menuv
                0x000117c0      0x636 ultralcd.o
 .text._ZL17menu_action_gcodePKc
                0x00011df6        0x6 ultralcd.o
 .text._ZL16lcd_prepare_menuv
                0x00011dfc      0x5e4 ultralcd.o
 .text._ZL12lcd_sd_updirv
                0x000123e0        0xe ultralcd.o
 .text._ZL15lcd_sdcard_stopv
                0x000123ee       0x72 ultralcd.o
 .text._ZL17lcd_sdcard_resumev
                0x00012460        0x8 ultralcd.o
 .text._ZL16lcd_sdcard_pausev
                0x00012468        0x8 ultralcd.o
 .text._ZL48lcd_implementation_drawmenu_setting_edit_generichPKccPc
                0x00012470       0x9e ultralcd.o
 .text._ZL50lcd_implementation_drawmenu_setting_edit_generic_PhPKccS0_
                0x0001250e       0x96 ultralcd.o
 .text._Z19copy_and_scalePID_dv
                0x000125a4       0x28 ultralcd.o
                0x000125a4                _Z19copy_and_scalePID_dv
 .text._Z19copy_and_scalePID_iv
                0x000125cc       0x28 ultralcd.o
                0x000125cc                _Z19copy_and_scalePID_iv
 .text._ZL23lcd_implementation_initv
                0x000125f4      0x150 ultralcd.o
 .text._Z15lcd_preheat_absv
                0x00012744       0x58 ultralcd.o
                0x00012744                _Z15lcd_preheat_absv
 .text._Z15lcd_preheat_plav
                0x0001279c       0x58 ultralcd.o
                0x0001279c                _Z15lcd_preheat_plav
 .text._Z27lcd_implementation_draweditPKcPc
                0x000127f4       0x5c ultralcd.o
                0x000127f4                _Z27lcd_implementation_draweditPKcPc
 .text._Z13lcd_setstatusPKc
                0x00012850       0x1e ultralcd.o
                0x00012850                _Z13lcd_setstatusPKc
 .text._Z16lcd_setstatuspgmPKc
                0x0001286e       0x1e ultralcd.o
                0x0001286e                _Z16lcd_setstatuspgmPKc
 .text._Z21lcd_setalertstatuspgmPKc
                0x0001288c        0xc ultralcd.o
                0x0001288c                _Z21lcd_setalertstatuspgmPKc
 .text._Z21lcd_reset_alert_levelv
                0x00012898        0x6 ultralcd.o
                0x00012898                _Z21lcd_reset_alert_levelv
 .text._Z18lcd_buttons_updatev
                0x0001289e       0xfa ultralcd.o
                0x0001289e                _Z18lcd_buttons_updatev
 .text._Z10lcd_updatev
                0x00012998      0x188 ultralcd.o
                0x00012998                _Z10lcd_updatev
 .text._Z8lcd_initv
                0x00012b20       0x4e ultralcd.o
                0x00012b20                _Z8lcd_initv
 .text._Z11lcd_clickedv
                0x00012b6e        0xc ultralcd.o
                0x00012b6e                _Z11lcd_clickedv
 .text._Z7itostr2RKh
                0x00012b7a       0x30 ultralcd.o
                0x00012b7a                _Z7itostr2RKh
 .text._Z8ftostr31RKf
                0x00012baa       0x98 ultralcd.o
                0x00012baa                _Z8ftostr31RKf
 .text._ZL10lcd_move_ev
                0x00012c42       0xf4 ultralcd.o
 .text._ZL10lcd_move_zv
                0x00012d36      0x15e ultralcd.o
 .text._ZL10lcd_move_yv
                0x00012e94      0x15e ultralcd.o
 .text._ZL10lcd_move_xv
                0x00012ff2      0x15e ultralcd.o
 .text._Z8ftostr32RKf
                0x00013150      0x116 ultralcd.o
                0x00013150                _Z8ftostr32RKf
 .text._Z17menu_edit_float32v
                0x00013266      0x142 ultralcd.o
                0x00013266                _Z17menu_edit_float32v
 .text._Z7itostr3RKi
                0x000133a8       0x72 ultralcd.o
                0x000133a8                _Z7itostr3RKi
 .text._ZL49lcd_control_temperature_preheat_abs_settings_menuv
                0x0001341a      0x2da ultralcd.o
 .text._ZL49lcd_control_temperature_preheat_pla_settings_menuv
                0x000136f4      0x2da ultralcd.o
 .text._ZL13lcd_tune_menuv
                0x000139ce      0x4b4 ultralcd.o
 .text._Z7ftostr3RKf
                0x00013e82       0x2e ultralcd.o
                0x00013e82                _Z7ftostr3RKf
 .text._Z16menu_edit_float3v
                0x00013eb0      0x12c ultralcd.o
                0x00013eb0                _Z16menu_edit_float3v
 .text._Z14menu_edit_int3v
                0x00013fdc       0xfe ultralcd.o
                0x00013fdc                _Z14menu_edit_int3v
 .text._Z11itostr3leftRKi
                0x000140da       0xa8 ultralcd.o
                0x000140da                _Z11itostr3leftRKi
 .text._ZL17lcd_status_screenv
                0x00014182      0x45e ultralcd.o
 .text._Z7ftostr5RKf
                0x000145e0      0x172 ultralcd.o
                0x000145e0                _Z7ftostr5RKf
 .text._Z24menu_edit_callback_long5v
                0x00014752      0x152 ultralcd.o
                0x00014752                _Z24menu_edit_callback_long5v
 .text._Z16menu_edit_float5v
                0x000148a4      0x144 ultralcd.o
                0x000148a4                _Z16menu_edit_float5v
 .text._Z8ftostr51RKf
                0x000149e8      0x114 ultralcd.o
                0x000149e8                _Z8ftostr51RKf
 .text._Z17menu_edit_float51v
                0x00014afc      0x144 ultralcd.o
                0x00014afc                _Z17menu_edit_float51v
 .text._Z8ftostr52RKf
                0x00014c40      0x114 ultralcd.o
                0x00014c40                _Z8ftostr52RKf
 .text._ZL23lcd_control_motion_menuv
                0x00014d54      0xf86 ultralcd.o
 .text._ZL28lcd_control_temperature_menuv
                0x00015cda      0xade ultralcd.o
 .text._Z26menu_edit_callback_float52v
                0x000167b8      0x148 ultralcd.o
                0x000167b8                _Z26menu_edit_callback_float52v
 .text._Z17menu_edit_float52v
                0x00016900      0x13e ultralcd.o
                0x00016900                _Z17menu_edit_float52v
 .text._GLOBAL__sub_I_encoderDiff
                0x00016a3e       0x4e ultralcd.o
 .text.avr-libc.fplib
                0x00016a8c        0xa c:/program files (x86)/atmel/atmel toolchain/avr8 gcc/native/3.4.2.1002/avr8-gnu-toolchain/bin/../lib/gcc/avr/4.7.2/../../../../avr/lib/avr6\libm.a(addsf3.o)
                0x00016a8c                __subsf3
                0x00016a8e                __addsf3
 .text.avr-libc.fplib
                0x00016a96       0xc0 c:/program files (x86)/atmel/atmel toolchain/avr8 gcc/native/3.4.2.1002/avr8-gnu-toolchain/bin/../lib/gcc/avr/4.7.2/../../../../avr/lib/avr6\libm.a(addsf3x.o)
                0x00016ab0                __addsf3x
 .text.avr-libc.fplib
                0x00016b56       0x74 c:/program files (x86)/atmel/atmel toolchain/avr8 gcc/native/3.4.2.1002/avr8-gnu-toolchain/bin/../lib/gcc/avr/4.7.2/../../../../avr/lib/avr6\libm.a(atan2.o)
                0x00016b74                atan2
 .text.avr-libc.fplib
                0x00016bca       0x50 c:/program files (x86)/atmel/atmel toolchain/avr8 gcc/native/3.4.2.1002/avr8-gnu-toolchain/bin/../lib/gcc/avr/4.7.2/../../../../avr/lib/avr6\libm.a(atan.o)
                0x00016bca                atan
 .text.avr-libc.fplib
                0x00016c1a       0x26 c:/program files (x86)/atmel/atmel toolchain/avr8 gcc/native/3.4.2.1002/avr8-gnu-toolchain/bin/../lib/gcc/avr/4.7.2/../../../../avr/lib/avr6\libm.a(ceil.o)
                0x00016c1a                ceil
 .text.avr-libc.fplib
                0x00016c40        0x8 c:/program files (x86)/atmel/atmel toolchain/avr8 gcc/native/3.4.2.1002/avr8-gnu-toolchain/bin/../lib/gcc/avr/4.7.2/../../../../avr/lib/avr6\libm.a(cmpsf2.o)
                0x00016c40                __nesf2
                0x00016c40                __eqsf2
                0x00016c40                __cmpsf2
                0x00016c40                __ltsf2
                0x00016c40                __lesf2
 .text.avr-libc.fplib
                0x00016c48        0x6 c:/program files (x86)/atmel/atmel toolchain/avr8 gcc/native/3.4.2.1002/avr8-gnu-toolchain/bin/../lib/gcc/avr/4.7.2/../../../../avr/lib/avr6\libm.a(cos.o)
                0x00016c48                cos
 .text.avr-libc.fplib
                0x00016c4e        0x4 c:/program files (x86)/atmel/atmel toolchain/avr8 gcc/native/3.4.2.1002/avr8-gnu-toolchain/bin/../lib/gcc/avr/4.7.2/../../../../avr/lib/avr6\libm.a(divsf3.o)
                0x00016c4e                __divsf3
 .text.avr-libc.fplib
                0x00016c52       0xcc c:/program files (x86)/atmel/atmel toolchain/avr8 gcc/native/3.4.2.1002/avr8-gnu-toolchain/bin/../lib/gcc/avr/4.7.2/../../../../avr/lib/avr6\libm.a(divsf3x.o)
                0x00016c68                __divsf3x
                0x00016c6c                __divsf3_pse
 .text.avr-libc.fplib
                0x00016d1e        0xa c:/program files (x86)/atmel/atmel toolchain/avr8 gcc/native/3.4.2.1002/avr8-gnu-toolchain/bin/../lib/gcc/avr/4.7.2/../../../../avr/lib/avr6\libm.a(fixsfsi.o)
                0x00016d1e                __fixsfsi
 .text.avr-libc.fplib
                0x00016d28       0x58 c:/program files (x86)/atmel/atmel toolchain/avr8 gcc/native/3.4.2.1002/avr8-gnu-toolchain/bin/../lib/gcc/avr/4.7.2/../../../../avr/lib/avr6\libm.a(fixunssfsi.o)
                0x00016d28                __fixunssfsi
 .text.avr-libc.fplib
                0x00016d80       0x7a c:/program files (x86)/atmel/atmel toolchain/avr8 gcc/native/3.4.2.1002/avr8-gnu-toolchain/bin/../lib/gcc/avr/4.7.2/../../../../avr/lib/avr6\libm.a(floatsisf.o)
                0x00016d80                __floatunsisf
                0x00016d84                __floatsisf
 .text.avr-libc.fplib
                0x00016dfa       0x26 c:/program files (x86)/atmel/atmel toolchain/avr8 gcc/native/3.4.2.1002/avr8-gnu-toolchain/bin/../lib/gcc/avr/4.7.2/../../../../avr/lib/avr6\libm.a(floor.o)
                0x00016dfa                floor
 .text.avr-libc.fplib
                0x00016e20       0x48 c:/program files (x86)/atmel/atmel toolchain/avr8 gcc/native/3.4.2.1002/avr8-gnu-toolchain/bin/../lib/gcc/avr/4.7.2/../../../../avr/lib/avr6\libm.a(fp_cmp.o)
                0x00016e20                __fp_cmp
 .text.avr-libc.fplib
                0x00016e68        0xc c:/program files (x86)/atmel/atmel toolchain/avr8 gcc/native/3.4.2.1002/avr8-gnu-toolchain/bin/../lib/gcc/avr/4.7.2/../../../../avr/lib/avr6\libm.a(fp_inf.o)
                0x00016e68                __fp_inf
 .text.avr-libc.fplib
                0x00016e74       0x36 c:/program files (x86)/atmel/atmel toolchain/avr8 gcc/native/3.4.2.1002/avr8-gnu-toolchain/bin/../lib/gcc/avr/4.7.2/../../../../avr/lib/avr6\libm.a(fp_mintl.o)
                0x00016e74                __fp_mintl
 .text.avr-libc.fplib
                0x00016eaa       0x1c c:/program files (x86)/atmel/atmel toolchain/avr8 gcc/native/3.4.2.1002/avr8-gnu-toolchain/bin/../lib/gcc/avr/4.7.2/../../../../avr/lib/avr6\libm.a(fp_mpack.o)
                0x00016eaa                __fp_mpack
                0x00016eae                __fp_mpack_finite
 .text.avr-libc.fplib
                0x00016ec6        0x6 c:/program files (x86)/atmel/atmel toolchain/avr8 gcc/native/3.4.2.1002/avr8-gnu-toolchain/bin/../lib/gcc/avr/4.7.2/../../../../avr/lib/avr6\libm.a(fp_nan.o)
                0x00016ec6                __fp_nan
 .text.avr-libc.fplib
                0x00016ecc       0x4a c:/program files (x86)/atmel/atmel toolchain/avr8 gcc/native/3.4.2.1002/avr8-gnu-toolchain/bin/../lib/gcc/avr/4.7.2/../../../../avr/lib/avr6\libm.a(fp_powser.o)
                0x00016ecc                __fp_powser
 .text.avr-libc.fplib
                0x00016f16        0xe c:/program files (x86)/atmel/atmel toolchain/avr8 gcc/native/3.4.2.1002/avr8-gnu-toolchain/bin/../lib/gcc/avr/4.7.2/../../../../avr/lib/avr6\libm.a(fp_pscA.o)
                0x00016f16                __fp_pscA
 .text.avr-libc.fplib
                0x00016f24        0xe c:/program files (x86)/atmel/atmel toolchain/avr8 gcc/native/3.4.2.1002/avr8-gnu-toolchain/bin/../lib/gcc/avr/4.7.2/../../../../avr/lib/avr6\libm.a(fp_pscB.o)
                0x00016f24                __fp_pscB
 .text.avr-libc.fplib
                0x00016f32       0x50 c:/program files (x86)/atmel/atmel toolchain/avr8 gcc/native/3.4.2.1002/avr8-gnu-toolchain/bin/../lib/gcc/avr/4.7.2/../../../../avr/lib/avr6\libm.a(fp_rempio2.o)
                0x00016f34                __fp_rempio2
 .text.avr-libc.fplib
                0x00016f82       0x22 c:/program files (x86)/atmel/atmel toolchain/avr8 gcc/native/3.4.2.1002/avr8-gnu-toolchain/bin/../lib/gcc/avr/4.7.2/../../../../avr/lib/avr6\libm.a(fp_round.o)
                0x00016f82                __fp_round
 .text.avr-libc.fplib
                0x00016fa4       0x22 c:/program files (x86)/atmel/atmel toolchain/avr8 gcc/native/3.4.2.1002/avr8-gnu-toolchain/bin/../lib/gcc/avr/4.7.2/../../../../avr/lib/avr6\libm.a(fp_sinus.o)
                0x00016fa4                __fp_sinus
 .text.avr-libc.fplib
                0x00016fc6       0x44 c:/program files (x86)/atmel/atmel toolchain/avr8 gcc/native/3.4.2.1002/avr8-gnu-toolchain/bin/../lib/gcc/avr/4.7.2/../../../../avr/lib/avr6\libm.a(fp_split3.o)
                0x00016fc6                __fp_split3
                0x00016fd6                __fp_splitA
 .text.avr-libc.fplib
                0x0001700a       0x2e c:/program files (x86)/atmel/atmel toolchain/avr8 gcc/native/3.4.2.1002/avr8-gnu-toolchain/bin/../lib/gcc/avr/4.7.2/../../../../avr/lib/avr6\libm.a(fp_trunc.o)
                0x0001700a                __fp_trunc
 .text.avr-libc.fplib
                0x00017038        0xe c:/program files (x86)/atmel/atmel toolchain/avr8 gcc/native/3.4.2.1002/avr8-gnu-toolchain/bin/../lib/gcc/avr/4.7.2/../../../../avr/lib/avr6\libm.a(fp_zero.o)
                0x00017038                __fp_zero
                0x0001703a                __fp_szero
 .text.avr-libc.fplib
                0x00017046        0x8 c:/program files (x86)/atmel/atmel toolchain/avr8 gcc/native/3.4.2.1002/avr8-gnu-toolchain/bin/../lib/gcc/avr/4.7.2/../../../../avr/lib/avr6\libm.a(gesf2.o)
                0x00017046                __gesf2
                0x00017046                __gtsf2
 .text.avr-libc.fplib
                0x0001704e       0xc2 c:/program files (x86)/atmel/atmel toolchain/avr8 gcc/native/3.4.2.1002/avr8-gnu-toolchain/bin/../lib/gcc/avr/4.7.2/../../../../avr/lib/avr6\libm.a(hypot.o)
                0x00017060                hypot
 .text.avr-libc.fplib
                0x00017110        0xe c:/program files (x86)/atmel/atmel toolchain/avr8 gcc/native/3.4.2.1002/avr8-gnu-toolchain/bin/../lib/gcc/avr/4.7.2/../../../../avr/lib/avr6\libm.a(inverse.o)
                0x00017110                inverse
 .text.avr-libc.fplib
                0x0001711e       0x6c c:/program files (x86)/atmel/atmel toolchain/avr8 gcc/native/3.4.2.1002/avr8-gnu-toolchain/bin/../lib/gcc/avr/4.7.2/../../../../avr/lib/avr6\libm.a(ldexp.o)
                0x00017122                ldexp
 .text.avr-libc.fplib
                0x0001718a       0x60 c:/program files (x86)/atmel/atmel toolchain/avr8 gcc/native/3.4.2.1002/avr8-gnu-toolchain/bin/../lib/gcc/avr/4.7.2/../../../../avr/lib/avr6\libm.a(lround.o)
                0x0001718a                lround
 .text.avr-libc.fplib
                0x000171ea        0x4 c:/program files (x86)/atmel/atmel toolchain/avr8 gcc/native/3.4.2.1002/avr8-gnu-toolchain/bin/../lib/gcc/avr/4.7.2/../../../../avr/lib/avr6\libm.a(mulsf3.o)
                0x000171ea                __mulsf3
 .text.avr-libc.fplib
                0x000171ee       0xc2 c:/program files (x86)/atmel/atmel toolchain/avr8 gcc/native/3.4.2.1002/avr8-gnu-toolchain/bin/../lib/gcc/avr/4.7.2/../../../../avr/lib/avr6\libm.a(mulsf3x.o)
                0x00017202                __mulsf3x
                0x00017206                __mulsf3_pse
 .text.avr-libc.fplib
                0x000172b0        0xc c:/program files (x86)/atmel/atmel toolchain/avr8 gcc/native/3.4.2.1002/avr8-gnu-toolchain/bin/../lib/gcc/avr/4.7.2/../../../../avr/lib/avr6\libm.a(sin.o)
                0x000172b0                sin
 .text.avr-libc.fplib
                0x000172bc       0x84 c:/program files (x86)/atmel/atmel toolchain/avr8 gcc/native/3.4.2.1002/avr8-gnu-toolchain/bin/../lib/gcc/avr/4.7.2/../../../../avr/lib/avr6\libm.a(sqrt.o)
                0x000172c4                sqrt
 .text.avr-libc.fplib
                0x00017340        0x6 c:/program files (x86)/atmel/atmel toolchain/avr8 gcc/native/3.4.2.1002/avr8-gnu-toolchain/bin/../lib/gcc/avr/4.7.2/../../../../avr/lib/avr6\libm.a(square.o)
                0x00017340                square
 .text.avr-libc.fplib
                0x00017346        0xe c:/program files (x86)/atmel/atmel toolchain/avr8 gcc/native/3.4.2.1002/avr8-gnu-toolchain/bin/../lib/gcc/avr/4.7.2/../../../../avr/lib/avr6\libm.a(fp_norm2.o)
                0x00017346                __fp_norm2
 .text.avr-libc.fplib
                0x00017354       0x22 c:/program files (x86)/atmel/atmel toolchain/avr8 gcc/native/3.4.2.1002/avr8-gnu-toolchain/bin/../lib/gcc/avr/4.7.2/../../../../avr/lib/avr6\libm.a(fp_powsodd.o)
                0x00017354                __fp_powsodd
 .text.__vector_23
                0x00017376       0x90 C:\Users\Shady\Documents\Atmel Studio\arduinoCoreMega\libcore.a(wiring.c.o)
                0x00017376                __vector_23
 .text.millis   0x00017406       0x1c C:\Users\Shady\Documents\Atmel Studio\arduinoCoreMega\libcore.a(wiring.c.o)
                0x00017406                millis
 .text.delay    0x00017422       0xb2 C:\Users\Shady\Documents\Atmel Studio\arduinoCoreMega\libcore.a(wiring.c.o)
                0x00017422                delay
 .text.delayMicroseconds
                0x000174d4       0x14 C:\Users\Shady\Documents\Atmel Studio\arduinoCoreMega\libcore.a(wiring.c.o)
                0x000174d4                delayMicroseconds
 .text.init     0x000174e8       0xc4 C:\Users\Shady\Documents\Atmel Studio\arduinoCoreMega\libcore.a(wiring.c.o)
                0x000174e8                init
 .text.analogWrite
                0x000175ac      0x1bc C:\Users\Shady\Documents\Atmel Studio\arduinoCoreMega\libcore.a(wiring_analog.c.o)
                0x000175ac                analogWrite
 .text.pinMode  0x00017768       0x7e C:\Users\Shady\Documents\Atmel Studio\arduinoCoreMega\libcore.a(wiring_digital.c.o)
                0x00017768                pinMode
 .text.turnOffPWM
                0x000177e6       0xe8 C:\Users\Shady\Documents\Atmel Studio\arduinoCoreMega\libcore.a(wiring_digital.c.o)
 .text.digitalWrite
                0x000178ce       0x64 C:\Users\Shady\Documents\Atmel Studio\arduinoCoreMega\libcore.a(wiring_digital.c.o)
                0x000178ce                digitalWrite
 .text.main     0x00017932       0x1c C:\Users\Shady\Documents\Atmel Studio\arduinoCoreMega\libcore.a(main.cpp.o)
                0x00017932                main
 .text.__cxa_pure_virtual
                0x0001794e        0x2 C:\Users\Shady\Documents\Atmel Studio\arduinoCoreMega\libcore.a(new.cpp.o)
                0x0001794e                __cxa_pure_virtual
 .text._ZN5Print5writeEPKhj
                0x00017950       0x54 C:\Users\Shady\Documents\Atmel Studio\arduinoCoreMega\libcore.a(Print.cpp.o)
                0x00017950                _ZN5Print5writeEPKhj
 .text._ZN5Print5printEc
                0x000179a4       0x10 C:\Users\Shady\Documents\Atmel Studio\arduinoCoreMega\libcore.a(Print.cpp.o)
                0x000179a4                _ZN5Print5printEc
 .text._ZN5Print5writeEPKc
                0x000179b4       0x38 C:\Users\Shady\Documents\Atmel Studio\arduinoCoreMega\libcore.a(Print.cpp.o)
                0x000179b4                _ZN5Print5writeEPKc
 .text._ZN5Print5printEPKc
                0x000179ec        0x4 C:\Users\Shady\Documents\Atmel Studio\arduinoCoreMega\libcore.a(Print.cpp.o)
                0x000179ec                _ZN5Print5printEPKc
 .text._Z12disableTimerh
                0x000179f0       0x66 C:\Users\Shady\Documents\Atmel Studio\arduinoCoreMega\libcore.a(Tone.cpp.o)
                0x000179f0                _Z12disableTimerh
 .text._Z6noToneh
                0x00017a56       0x2a C:\Users\Shady\Documents\Atmel Studio\arduinoCoreMega\libcore.a(Tone.cpp.o)
                0x00017a56                _Z6noToneh
 .text.__vector_13
                0x00017a80       0xbe C:\Users\Shady\Documents\Atmel Studio\arduinoCoreMega\libcore.a(Tone.cpp.o)
                0x00017a80                __vector_13
 .text._Z4tonehjm
                0x00017b3e      0x5dc C:\Users\Shady\Documents\Atmel Studio\arduinoCoreMega\libcore.a(Tone.cpp.o)
                0x00017b3e                _Z4tonehjm
 .text.libgcc.mul
                0x0001811a       0x1e c:/program files (x86)/atmel/atmel toolchain/avr8 gcc/native/3.4.2.1002/avr8-gnu-toolchain/bin/../lib/gcc/avr/4.7.2/avr6\libgcc.a(_mulsi3.o)
                0x0001811a                __mulsi3
 .text.libgcc.div
                0x00018138       0x26 c:/program files (x86)/atmel/atmel toolchain/avr8 gcc/native/3.4.2.1002/avr8-gnu-toolchain/bin/../lib/gcc/avr/4.7.2/avr6\libgcc.a(_divmodhi4.o)
                0x00018138                _div
                0x00018138                __divmodhi4
 .text.libgcc.div
                0x0001815e       0x44 c:/program files (x86)/atmel/atmel toolchain/avr8 gcc/native/3.4.2.1002/avr8-gnu-toolchain/bin/../lib/gcc/avr/4.7.2/avr6\libgcc.a(_udivmodsi4.o)
                0x0001815e                __udivmodsi4
 .text.libgcc.div
                0x000181a2       0x36 c:/program files (x86)/atmel/atmel toolchain/avr8 gcc/native/3.4.2.1002/avr8-gnu-toolchain/bin/../lib/gcc/avr/4.7.2/avr6\libgcc.a(_divmodsi4.o)
                0x000181a2                __divmodsi4
 .text.libgcc.mul
                0x000181d8       0x18 c:/program files (x86)/atmel/atmel toolchain/avr8 gcc/native/3.4.2.1002/avr8-gnu-toolchain/bin/../lib/gcc/avr/4.7.2/avr6\libgcc.a(_umulhisi3.o)
                0x000181d8                __umulhisi3
 .text.libgcc.mul
                0x000181f0       0x14 c:/program files (x86)/atmel/atmel toolchain/avr8 gcc/native/3.4.2.1002/avr8-gnu-toolchain/bin/../lib/gcc/avr/4.7.2/avr6\libgcc.a(_muluhisi3.o)
                0x000181f0                __muluhisi3
 .text.libgcc.mul
                0x00018204        0xc c:/program files (x86)/atmel/atmel toolchain/avr8 gcc/native/3.4.2.1002/avr8-gnu-toolchain/bin/../lib/gcc/avr/4.7.2/avr6\libgcc.a(_mulshisi3.o)
                0x00018204                __mulshisi3
                0x00018208                __mulohisi3
 .text.libgcc   0x00018210        0x8 c:/program files (x86)/atmel/atmel toolchain/avr8 gcc/native/3.4.2.1002/avr8-gnu-toolchain/bin/../lib/gcc/avr/4.7.2/avr6\libgcc.a(_tablejump_elpm.o)
                0x00018210                __tablejump_elpm__
 .text.libgcc.div
                0x00018218       0x28 c:/program files (x86)/atmel/atmel toolchain/avr8 gcc/native/3.4.2.1002/avr8-gnu-toolchain/bin/../lib/gcc/avr/4.7.2/avr6\libgcc.a(_udivmodhi4.o)
                0x00018218                __udivmodhi4
 .text.avr-libc
                0x00018240      0x2ac c:/program files (x86)/atmel/atmel toolchain/avr8 gcc/native/3.4.2.1002/avr8-gnu-toolchain/bin/../lib/gcc/avr/4.7.2/../../../../avr/lib/avr6\libc.a(strtod.o)
                0x00018240                strtod
 .text.avr-libc
                0x000184ec      0x252 c:/program files (x86)/atmel/atmel toolchain/avr8 gcc/native/3.4.2.1002/avr8-gnu-toolchain/bin/../lib/gcc/avr/4.7.2/../../../../avr/lib/avr6\libc.a(strtol.o)
                0x000184ec                strtol
 .text.avr-libc
                0x0001873e       0x10 c:/program files (x86)/atmel/atmel toolchain/avr8 gcc/native/3.4.2.1002/avr8-gnu-toolchain/bin/../lib/gcc/avr/4.7.2/../../../../avr/lib/avr6\libc.a(isspace.o)
                0x0001873e                isspace
 .text.avr-libc
                0x0001874e       0x10 c:/program files (x86)/atmel/atmel toolchain/avr8 gcc/native/3.4.2.1002/avr8-gnu-toolchain/bin/../lib/gcc/avr/4.7.2/../../../../avr/lib/avr6\libc.a(tolower.o)
                0x0001874e                tolower
 .text.avr-libc
                0x0001875e        0xe c:/program files (x86)/atmel/atmel toolchain/avr8 gcc/native/3.4.2.1002/avr8-gnu-toolchain/bin/../lib/gcc/avr/4.7.2/../../../../avr/lib/avr6\libc.a(strcpy_P.o)
                0x0001875e                strcpy_P
 .text.avr-libc
                0x0001876c       0x12 c:/program files (x86)/atmel/atmel toolchain/avr8 gcc/native/3.4.2.1002/avr8-gnu-toolchain/bin/../lib/gcc/avr/4.7.2/../../../../avr/lib/avr6\libc.a(strlen_P.o)
                0x0001876c                __strlen_P
 .text.avr-libc
                0x0001877e       0x30 c:/program files (x86)/atmel/atmel toolchain/avr8 gcc/native/3.4.2.1002/avr8-gnu-toolchain/bin/../lib/gcc/avr/4.7.2/../../../../avr/lib/avr6\libc.a(strncasecmp_P.o)
                0x0001877e                strncasecmp_P
 .text.avr-libc
                0x000187ae       0x1e c:/program files (x86)/atmel/atmel toolchain/avr8 gcc/native/3.4.2.1002/avr8-gnu-toolchain/bin/../lib/gcc/avr/4.7.2/../../../../avr/lib/avr6\libc.a(strncpy_P.o)
                0x000187ae                strncpy_P
 .text.avr-libc
                0x000187cc       0x34 c:/program files (x86)/atmel/atmel toolchain/avr8 gcc/native/3.4.2.1002/avr8-gnu-toolchain/bin/../lib/gcc/avr/4.7.2/../../../../avr/lib/avr6\libc.a(strstr_P.o)
                0x000187cc                strstr_P
 .text.avr-libc
                0x00018800       0x1a c:/program files (x86)/atmel/atmel toolchain/avr8 gcc/native/3.4.2.1002/avr8-gnu-toolchain/bin/../lib/gcc/avr/4.7.2/../../../../avr/lib/avr6\libc.a(memcmp.o)
                0x00018800                memcmp
 .text.avr-libc
                0x0001881a       0x12 c:/program files (x86)/atmel/atmel toolchain/avr8 gcc/native/3.4.2.1002/avr8-gnu-toolchain/bin/../lib/gcc/avr/4.7.2/../../../../avr/lib/avr6\libc.a(memcpy.o)
                0x0001881a                memcpy
 .text.avr-libc
                0x0001882c       0x16 c:/program files (x86)/atmel/atmel toolchain/avr8 gcc/native/3.4.2.1002/avr8-gnu-toolchain/bin/../lib/gcc/avr/4.7.2/../../../../avr/lib/avr6\libc.a(strcat.o)
                0x0001882c                strcat
 .text.avr-libc
                0x00018842       0x16 c:/program files (x86)/atmel/atmel toolchain/avr8 gcc/native/3.4.2.1002/avr8-gnu-toolchain/bin/../lib/gcc/avr/4.7.2/../../../../avr/lib/avr6\libc.a(strchr.o)
                0x00018842                strchr
 .text.avr-libc
                0x00018858        0xe c:/program files (x86)/atmel/atmel toolchain/avr8 gcc/native/3.4.2.1002/avr8-gnu-toolchain/bin/../lib/gcc/avr/4.7.2/../../../../avr/lib/avr6\libc.a(strcpy.o)
                0x00018858                strcpy
 .text.avr-libc
                0x00018866       0x1c c:/program files (x86)/atmel/atmel toolchain/avr8 gcc/native/3.4.2.1002/avr8-gnu-toolchain/bin/../lib/gcc/avr/4.7.2/../../../../avr/lib/avr6\libc.a(strncmp.o)
                0x00018866                strncmp
 .text.avr-libc
                0x00018882       0x1e c:/program files (x86)/atmel/atmel toolchain/avr8 gcc/native/3.4.2.1002/avr8-gnu-toolchain/bin/../lib/gcc/avr/4.7.2/../../../../avr/lib/avr6\libc.a(strncpy.o)
                0x00018882                strncpy
 .text.avr-libc
                0x000188a0       0x5c c:/program files (x86)/atmel/atmel toolchain/avr8 gcc/native/3.4.2.1002/avr8-gnu-toolchain/bin/../lib/gcc/avr/4.7.2/../../../../avr/lib/avr6\libc.a(sprintf_p.o)
                0x000188a0                sprintf_P
 .text.avr-libc
                0x000188fc      0x3f0 c:/program files (x86)/atmel/atmel toolchain/avr8 gcc/native/3.4.2.1002/avr8-gnu-toolchain/bin/../lib/gcc/avr/4.7.2/../../../../avr/lib/avr6\libc.a(vfprintf_std.o)
                0x000188fc                vfprintf
 .text.avr-libc
                0x00018cec        0x6 c:/program files (x86)/atmel/atmel toolchain/avr8 gcc/native/3.4.2.1002/avr8-gnu-toolchain/bin/../lib/gcc/avr/4.7.2/../../../../avr/lib/avr6\libc.a(cty_isfalse.o)
                0x00018cec                __ctype_isfalse
                0x00018cf0                __ctype_istrue
 .text.avr-libc
                0x00018cf2       0x16 c:/program files (x86)/atmel/atmel toolchain/avr8 gcc/native/3.4.2.1002/avr8-gnu-toolchain/bin/../lib/gcc/avr/4.7.2/../../../../avr/lib/avr6\libc.a(strnlen_P.o)
                0x00018cf2                strnlen_P
 .text.avr-libc
                0x00018d08       0x16 c:/program files (x86)/atmel/atmel toolchain/avr8 gcc/native/3.4.2.1002/avr8-gnu-toolchain/bin/../lib/gcc/avr/4.7.2/../../../../avr/lib/avr6\libc.a(strnlen.o)
                0x00018d08                strnlen
 .text.avr-libc
                0x00018d1e       0x58 c:/program files (x86)/atmel/atmel toolchain/avr8 gcc/native/3.4.2.1002/avr8-gnu-toolchain/bin/../lib/gcc/avr/4.7.2/../../../../avr/lib/avr6\libc.a(fputc.o)
                0x00018d1e                fputc
 .text.avr-libc
                0x00018d76       0xbc c:/program files (x86)/atmel/atmel toolchain/avr8 gcc/native/3.4.2.1002/avr8-gnu-toolchain/bin/../lib/gcc/avr/4.7.2/../../../../avr/lib/avr6\libc.a(ultoa_invert.o)
                0x00018d76                __ultoa_invert
                0x00018e32                . = ALIGN (0x2)
 *(.fini9)
 .fini9         0x00018e32        0x0 c:/program files (x86)/atmel/atmel toolchain/avr8 gcc/native/3.4.2.1002/avr8-gnu-toolchain/bin/../lib/gcc/avr/4.7.2/avr6\libgcc.a(_exit.o)
                0x00018e32                _exit
                0x00018e32                exit
 *(.fini9)
 *(.fini8)
 *(.fini8)
 *(.fini7)
 *(.fini7)
 *(.fini6)
 .fini6         0x00018e32       0x1e c:/program files (x86)/atmel/atmel toolchain/avr8 gcc/native/3.4.2.1002/avr8-gnu-toolchain/bin/../lib/gcc/avr/4.7.2/avr6\libgcc.a(_dtors.o)
                0x00018e32                __do_global_dtors
 *(.fini6)
 *(.fini5)
 *(.fini5)
 *(.fini4)
 *(.fini4)
 *(.fini3)
 *(.fini3)
 *(.fini2)
 *(.fini2)
 *(.fini1)
 *(.fini1)
 *(.fini0)
 .fini0         0x00018e50        0x4 c:/program files (x86)/atmel/atmel toolchain/avr8 gcc/native/3.4.2.1002/avr8-gnu-toolchain/bin/../lib/gcc/avr/4.7.2/avr6\libgcc.a(_exit.o)
 *(.fini0)
                0x00018e54                _etext = .

.data           0x00800200      0x280 load address 0x00018e54
                0x00800200                PROVIDE (__data_start, .)
 *(.data)
 .data          0x00800200        0x0 c:/program files (x86)/atmel/atmel toolchain/avr8 gcc/native/3.4.2.1002/avr8-gnu-toolchain/bin/../lib/gcc/avr/4.7.2/../../../../avr/lib/avr6/crtm2560.o
 .data          0x00800200        0x0 libs/I2CIO.o
 .data          0x00800200        0x0 libs/LCD.o
 .data          0x00800200        0x0 libs/LiquidCrystal_I2C.o
 .data          0x00800200        0x0 libs/LiquidTWI2.o
 .data          0x00800200        0x0 cardreader.o
 .data          0x00800200        0x0 ConfigurationStore.o
 .data          0x00800200        0x0 libs/Wire.o
 .data          0x00800200        0x0 LiquidCrystalRus.o
 .data          0x00800200        0x0 Marlin.o
 .data          0x00800200        0x0 MarlinSerial.o
 .data          0x00800200        0x0 Marlin_main.o
 .data          0x00800200        0x0 motion_control.o
 .data          0x00800200        0x0 planner.o
 .data          0x00800200        0x0 Sd2Card.o
 .data          0x00800200        0x0 SdBaseFile.o
 .data          0x00800200        0x0 SdFatUtil.o
 .data          0x00800200        0x0 SdFile.o
 .data          0x00800200        0x0 SdVolume.o
 .data          0x00800200        0x0 Servo.o
 .data          0x00800200        0x0 stepper.o
 .data          0x00800200        0x0 temperature.o
 .data          0x00800200        0x0 twi.o
 .data          0x00800200        0x0 ultralcd.o
 .data          0x00800200        0x0 watchdog.o
 .data          0x00800200        0x0 c:/program files (x86)/atmel/atmel toolchain/avr8 gcc/native/3.4.2.1002/avr8-gnu-toolchain/bin/../lib/gcc/avr/4.7.2/../../../../avr/lib/avr6\libm.a(addsf3.o)
 .data          0x00800200        0x0 c:/program files (x86)/atmel/atmel toolchain/avr8 gcc/native/3.4.2.1002/avr8-gnu-toolchain/bin/../lib/gcc/avr/4.7.2/../../../../avr/lib/avr6\libm.a(addsf3x.o)
 .data          0x00800200        0x0 c:/program files (x86)/atmel/atmel toolchain/avr8 gcc/native/3.4.2.1002/avr8-gnu-toolchain/bin/../lib/gcc/avr/4.7.2/../../../../avr/lib/avr6\libm.a(atan2.o)
 .data          0x00800200        0x0 c:/program files (x86)/atmel/atmel toolchain/avr8 gcc/native/3.4.2.1002/avr8-gnu-toolchain/bin/../lib/gcc/avr/4.7.2/../../../../avr/lib/avr6\libm.a(atan.o)
 .data          0x00800200        0x0 c:/program files (x86)/atmel/atmel toolchain/avr8 gcc/native/3.4.2.1002/avr8-gnu-toolchain/bin/../lib/gcc/avr/4.7.2/../../../../avr/lib/avr6\libm.a(ceil.o)
 .data          0x00800200        0x0 c:/program files (x86)/atmel/atmel toolchain/avr8 gcc/native/3.4.2.1002/avr8-gnu-toolchain/bin/../lib/gcc/avr/4.7.2/../../../../avr/lib/avr6\libm.a(cmpsf2.o)
 .data          0x00800200        0x0 c:/program files (x86)/atmel/atmel toolchain/avr8 gcc/native/3.4.2.1002/avr8-gnu-toolchain/bin/../lib/gcc/avr/4.7.2/../../../../avr/lib/avr6\libm.a(cos.o)
 .data          0x00800200        0x0 c:/program files (x86)/atmel/atmel toolchain/avr8 gcc/native/3.4.2.1002/avr8-gnu-toolchain/bin/../lib/gcc/avr/4.7.2/../../../../avr/lib/avr6\libm.a(divsf3.o)
 .data          0x00800200        0x0 c:/program files (x86)/atmel/atmel toolchain/avr8 gcc/native/3.4.2.1002/avr8-gnu-toolchain/bin/../lib/gcc/avr/4.7.2/../../../../avr/lib/avr6\libm.a(divsf3x.o)
 .data          0x00800200        0x0 c:/program files (x86)/atmel/atmel toolchain/avr8 gcc/native/3.4.2.1002/avr8-gnu-toolchain/bin/../lib/gcc/avr/4.7.2/../../../../avr/lib/avr6\libm.a(fixsfsi.o)
 .data          0x00800200        0x0 c:/program files (x86)/atmel/atmel toolchain/avr8 gcc/native/3.4.2.1002/avr8-gnu-toolchain/bin/../lib/gcc/avr/4.7.2/../../../../avr/lib/avr6\libm.a(fixunssfsi.o)
 .data          0x00800200        0x0 c:/program files (x86)/atmel/atmel toolchain/avr8 gcc/native/3.4.2.1002/avr8-gnu-toolchain/bin/../lib/gcc/avr/4.7.2/../../../../avr/lib/avr6\libm.a(floatsisf.o)
 .data          0x00800200        0x0 c:/program files (x86)/atmel/atmel toolchain/avr8 gcc/native/3.4.2.1002/avr8-gnu-toolchain/bin/../lib/gcc/avr/4.7.2/../../../../avr/lib/avr6\libm.a(floor.o)
 .data          0x00800200        0x0 c:/program files (x86)/atmel/atmel toolchain/avr8 gcc/native/3.4.2.1002/avr8-gnu-toolchain/bin/../lib/gcc/avr/4.7.2/../../../../avr/lib/avr6\libm.a(fp_cmp.o)
 .data          0x00800200        0x0 c:/program files (x86)/atmel/atmel toolchain/avr8 gcc/native/3.4.2.1002/avr8-gnu-toolchain/bin/../lib/gcc/avr/4.7.2/../../../../avr/lib/avr6\libm.a(fp_inf.o)
 .data          0x00800200        0x0 c:/program files (x86)/atmel/atmel toolchain/avr8 gcc/native/3.4.2.1002/avr8-gnu-toolchain/bin/../lib/gcc/avr/4.7.2/../../../../avr/lib/avr6\libm.a(fp_mintl.o)
 .data          0x00800200        0x0 c:/program files (x86)/atmel/atmel toolchain/avr8 gcc/native/3.4.2.1002/avr8-gnu-toolchain/bin/../lib/gcc/avr/4.7.2/../../../../avr/lib/avr6\libm.a(fp_mpack.o)
 .data          0x00800200        0x0 c:/program files (x86)/atmel/atmel toolchain/avr8 gcc/native/3.4.2.1002/avr8-gnu-toolchain/bin/../lib/gcc/avr/4.7.2/../../../../avr/lib/avr6\libm.a(fp_nan.o)
 .data          0x00800200        0x0 c:/program files (x86)/atmel/atmel toolchain/avr8 gcc/native/3.4.2.1002/avr8-gnu-toolchain/bin/../lib/gcc/avr/4.7.2/../../../../avr/lib/avr6\libm.a(fp_powser.o)
 .data          0x00800200        0x0 c:/program files (x86)/atmel/atmel toolchain/avr8 gcc/native/3.4.2.1002/avr8-gnu-toolchain/bin/../lib/gcc/avr/4.7.2/../../../../avr/lib/avr6\libm.a(fp_pscA.o)
 .data          0x00800200        0x0 c:/program files (x86)/atmel/atmel toolchain/avr8 gcc/native/3.4.2.1002/avr8-gnu-toolchain/bin/../lib/gcc/avr/4.7.2/../../../../avr/lib/avr6\libm.a(fp_pscB.o)
 .data          0x00800200        0x0 c:/program files (x86)/atmel/atmel toolchain/avr8 gcc/native/3.4.2.1002/avr8-gnu-toolchain/bin/../lib/gcc/avr/4.7.2/../../../../avr/lib/avr6\libm.a(fp_rempio2.o)
 .data          0x00800200        0x0 c:/program files (x86)/atmel/atmel toolchain/avr8 gcc/native/3.4.2.1002/avr8-gnu-toolchain/bin/../lib/gcc/avr/4.7.2/../../../../avr/lib/avr6\libm.a(fp_round.o)
 .data          0x00800200        0x0 c:/program files (x86)/atmel/atmel toolchain/avr8 gcc/native/3.4.2.1002/avr8-gnu-toolchain/bin/../lib/gcc/avr/4.7.2/../../../../avr/lib/avr6\libm.a(fp_sinus.o)
 .data          0x00800200        0x0 c:/program files (x86)/atmel/atmel toolchain/avr8 gcc/native/3.4.2.1002/avr8-gnu-toolchain/bin/../lib/gcc/avr/4.7.2/../../../../avr/lib/avr6\libm.a(fp_split3.o)
 .data          0x00800200        0x0 c:/program files (x86)/atmel/atmel toolchain/avr8 gcc/native/3.4.2.1002/avr8-gnu-toolchain/bin/../lib/gcc/avr/4.7.2/../../../../avr/lib/avr6\libm.a(fp_trunc.o)
 .data          0x00800200        0x0 c:/program files (x86)/atmel/atmel toolchain/avr8 gcc/native/3.4.2.1002/avr8-gnu-toolchain/bin/../lib/gcc/avr/4.7.2/../../../../avr/lib/avr6\libm.a(fp_zero.o)
 .data          0x00800200        0x0 c:/program files (x86)/atmel/atmel toolchain/avr8 gcc/native/3.4.2.1002/avr8-gnu-toolchain/bin/../lib/gcc/avr/4.7.2/../../../../avr/lib/avr6\libm.a(gesf2.o)
 .data          0x00800200        0x0 c:/program files (x86)/atmel/atmel toolchain/avr8 gcc/native/3.4.2.1002/avr8-gnu-toolchain/bin/../lib/gcc/avr/4.7.2/../../../../avr/lib/avr6\libm.a(hypot.o)
 .data          0x00800200        0x0 c:/program files (x86)/atmel/atmel toolchain/avr8 gcc/native/3.4.2.1002/avr8-gnu-toolchain/bin/../lib/gcc/avr/4.7.2/../../../../avr/lib/avr6\libm.a(inverse.o)
 .data          0x00800200        0x0 c:/program files (x86)/atmel/atmel toolchain/avr8 gcc/native/3.4.2.1002/avr8-gnu-toolchain/bin/../lib/gcc/avr/4.7.2/../../../../avr/lib/avr6\libm.a(ldexp.o)
 .data          0x00800200        0x0 c:/program files (x86)/atmel/atmel toolchain/avr8 gcc/native/3.4.2.1002/avr8-gnu-toolchain/bin/../lib/gcc/avr/4.7.2/../../../../avr/lib/avr6\libm.a(lround.o)
 .data          0x00800200        0x0 c:/program files (x86)/atmel/atmel toolchain/avr8 gcc/native/3.4.2.1002/avr8-gnu-toolchain/bin/../lib/gcc/avr/4.7.2/../../../../avr/lib/avr6\libm.a(mulsf3.o)
 .data          0x00800200        0x0 c:/program files (x86)/atmel/atmel toolchain/avr8 gcc/native/3.4.2.1002/avr8-gnu-toolchain/bin/../lib/gcc/avr/4.7.2/../../../../avr/lib/avr6\libm.a(mulsf3x.o)
 .data          0x00800200        0x0 c:/program files (x86)/atmel/atmel toolchain/avr8 gcc/native/3.4.2.1002/avr8-gnu-toolchain/bin/../lib/gcc/avr/4.7.2/../../../../avr/lib/avr6\libm.a(sin.o)
 .data          0x00800200        0x0 c:/program files (x86)/atmel/atmel toolchain/avr8 gcc/native/3.4.2.1002/avr8-gnu-toolchain/bin/../lib/gcc/avr/4.7.2/../../../../avr/lib/avr6\libm.a(sqrt.o)
 .data          0x00800200        0x0 c:/program files (x86)/atmel/atmel toolchain/avr8 gcc/native/3.4.2.1002/avr8-gnu-toolchain/bin/../lib/gcc/avr/4.7.2/../../../../avr/lib/avr6\libm.a(square.o)
 .data          0x00800200        0x0 c:/program files (x86)/atmel/atmel toolchain/avr8 gcc/native/3.4.2.1002/avr8-gnu-toolchain/bin/../lib/gcc/avr/4.7.2/../../../../avr/lib/avr6\libm.a(fp_norm2.o)
 .data          0x00800200        0x0 c:/program files (x86)/atmel/atmel toolchain/avr8 gcc/native/3.4.2.1002/avr8-gnu-toolchain/bin/../lib/gcc/avr/4.7.2/../../../../avr/lib/avr6\libm.a(fp_powsodd.o)
 .data          0x00800200        0x0 C:\Users\Shady\Documents\Atmel Studio\arduinoCoreMega\libcore.a(malloc.c.o)
 .data          0x00800200        0x0 C:\Users\Shady\Documents\Atmel Studio\arduinoCoreMega\libcore.a(wiring.c.o)
 .data          0x00800200        0x0 C:\Users\Shady\Documents\Atmel Studio\arduinoCoreMega\libcore.a(wiring_analog.c.o)
 .data          0x00800200        0x0 C:\Users\Shady\Documents\Atmel Studio\arduinoCoreMega\libcore.a(wiring_digital.c.o)
 .data          0x00800200        0x0 C:\Users\Shady\Documents\Atmel Studio\arduinoCoreMega\libcore.a(main.cpp.o)
 .data          0x00800200        0x0 C:\Users\Shady\Documents\Atmel Studio\arduinoCoreMega\libcore.a(new.cpp.o)
 .data          0x00800200        0xe C:\Users\Shady\Documents\Atmel Studio\arduinoCoreMega\libcore.a(Print.cpp.o)
 .data          0x0080020e        0x0 C:\Users\Shady\Documents\Atmel Studio\arduinoCoreMega\libcore.a(Tone.cpp.o)
 .data          0x0080020e        0x1 C:\Users\Shady\Documents\Atmel Studio\arduinoCoreMega\libcore.a(WString.cpp.o)
 .data          0x0080020f        0x0 C:\Users\Shady\Documents\Atmel Studio\arduinoCoreMega\libcore.a(realloc.c.o)
 .data          0x0080020f        0x0 c:/program files (x86)/atmel/atmel toolchain/avr8 gcc/native/3.4.2.1002/avr8-gnu-toolchain/bin/../lib/gcc/avr/4.7.2/../../../../avr/lib/avr6\libm.a(unordsf2.o)
 .data          0x0080020f        0x0 c:/program files (x86)/atmel/atmel toolchain/avr8 gcc/native/3.4.2.1002/avr8-gnu-toolchain/bin/../lib/gcc/avr/4.7.2/avr6\libgcc.a(_mulsi3.o)
 .data          0x0080020f        0x0 c:/program files (x86)/atmel/atmel toolchain/avr8 gcc/native/3.4.2.1002/avr8-gnu-toolchain/bin/../lib/gcc/avr/4.7.2/avr6\libgcc.a(_divmodhi4.o)
 .data          0x0080020f        0x0 c:/program files (x86)/atmel/atmel toolchain/avr8 gcc/native/3.4.2.1002/avr8-gnu-toolchain/bin/../lib/gcc/avr/4.7.2/avr6\libgcc.a(_udivmodsi4.o)
 .data          0x0080020f        0x0 c:/program files (x86)/atmel/atmel toolchain/avr8 gcc/native/3.4.2.1002/avr8-gnu-toolchain/bin/../lib/gcc/avr/4.7.2/avr6\libgcc.a(_divmodsi4.o)
 .data          0x0080020f        0x0 c:/program files (x86)/atmel/atmel toolchain/avr8 gcc/native/3.4.2.1002/avr8-gnu-toolchain/bin/../lib/gcc/avr/4.7.2/avr6\libgcc.a(_exit.o)
 .data          0x0080020f        0x0 c:/program files (x86)/atmel/atmel toolchain/avr8 gcc/native/3.4.2.1002/avr8-gnu-toolchain/bin/../lib/gcc/avr/4.7.2/avr6\libgcc.a(_copy_data.o)
 .data          0x0080020f        0x0 c:/program files (x86)/atmel/atmel toolchain/avr8 gcc/native/3.4.2.1002/avr8-gnu-toolchain/bin/../lib/gcc/avr/4.7.2/avr6\libgcc.a(_clear_bss.o)
 .data          0x0080020f        0x0 c:/program files (x86)/atmel/atmel toolchain/avr8 gcc/native/3.4.2.1002/avr8-gnu-toolchain/bin/../lib/gcc/avr/4.7.2/avr6\libgcc.a(_ctors.o)
 .data          0x0080020f        0x0 c:/program files (x86)/atmel/atmel toolchain/avr8 gcc/native/3.4.2.1002/avr8-gnu-toolchain/bin/../lib/gcc/avr/4.7.2/avr6\libgcc.a(_dtors.o)
 .data          0x0080020f        0x0 c:/program files (x86)/atmel/atmel toolchain/avr8 gcc/native/3.4.2.1002/avr8-gnu-toolchain/bin/../lib/gcc/avr/4.7.2/avr6\libgcc.a(_umulhisi3.o)
 .data          0x0080020f        0x0 c:/program files (x86)/atmel/atmel toolchain/avr8 gcc/native/3.4.2.1002/avr8-gnu-toolchain/bin/../lib/gcc/avr/4.7.2/avr6\libgcc.a(_muluhisi3.o)
 .data          0x0080020f        0x0 c:/program files (x86)/atmel/atmel toolchain/avr8 gcc/native/3.4.2.1002/avr8-gnu-toolchain/bin/../lib/gcc/avr/4.7.2/avr6\libgcc.a(_mulshisi3.o)
 .data          0x0080020f        0x0 c:/program files (x86)/atmel/atmel toolchain/avr8 gcc/native/3.4.2.1002/avr8-gnu-toolchain/bin/../lib/gcc/avr/4.7.2/avr6\libgcc.a(_tablejump_elpm.o)
 .data          0x0080020f        0x0 c:/program files (x86)/atmel/atmel toolchain/avr8 gcc/native/3.4.2.1002/avr8-gnu-toolchain/bin/../lib/gcc/avr/4.7.2/avr6\libgcc.a(_udivmodhi4.o)
 .data          0x0080020f        0x0 c:/program files (x86)/atmel/atmel toolchain/avr8 gcc/native/3.4.2.1002/avr8-gnu-toolchain/bin/../lib/gcc/avr/4.7.2/../../../../avr/lib/avr6\libc.a(strtod.o)
 .data          0x0080020f        0x0 c:/program files (x86)/atmel/atmel toolchain/avr8 gcc/native/3.4.2.1002/avr8-gnu-toolchain/bin/../lib/gcc/avr/4.7.2/../../../../avr/lib/avr6\libc.a(strtol.o)
 .data          0x0080020f        0x0 c:/program files (x86)/atmel/atmel toolchain/avr8 gcc/native/3.4.2.1002/avr8-gnu-toolchain/bin/../lib/gcc/avr/4.7.2/../../../../avr/lib/avr6\libc.a(atol.o)
 .data          0x0080020f        0x0 c:/program files (x86)/atmel/atmel toolchain/avr8 gcc/native/3.4.2.1002/avr8-gnu-toolchain/bin/../lib/gcc/avr/4.7.2/../../../../avr/lib/avr6\libc.a(isspace.o)
 .data          0x0080020f        0x0 c:/program files (x86)/atmel/atmel toolchain/avr8 gcc/native/3.4.2.1002/avr8-gnu-toolchain/bin/../lib/gcc/avr/4.7.2/../../../../avr/lib/avr6\libc.a(tolower.o)
 .data          0x0080020f        0x0 c:/program files (x86)/atmel/atmel toolchain/avr8 gcc/native/3.4.2.1002/avr8-gnu-toolchain/bin/../lib/gcc/avr/4.7.2/../../../../avr/lib/avr6\libc.a(toupper.o)
 .data          0x0080020f        0x0 c:/program files (x86)/atmel/atmel toolchain/avr8 gcc/native/3.4.2.1002/avr8-gnu-toolchain/bin/../lib/gcc/avr/4.7.2/../../../../avr/lib/avr6\libc.a(strcpy_P.o)
 .data          0x0080020f        0x0 c:/program files (x86)/atmel/atmel toolchain/avr8 gcc/native/3.4.2.1002/avr8-gnu-toolchain/bin/../lib/gcc/avr/4.7.2/../../../../avr/lib/avr6\libc.a(strlen_P.o)
 .data          0x0080020f        0x0 c:/program files (x86)/atmel/atmel toolchain/avr8 gcc/native/3.4.2.1002/avr8-gnu-toolchain/bin/../lib/gcc/avr/4.7.2/../../../../avr/lib/avr6\libc.a(strncasecmp_P.o)
 .data          0x0080020f        0x0 c:/program files (x86)/atmel/atmel toolchain/avr8 gcc/native/3.4.2.1002/avr8-gnu-toolchain/bin/../lib/gcc/avr/4.7.2/../../../../avr/lib/avr6\libc.a(strncpy_P.o)
 .data          0x0080020f        0x0 c:/program files (x86)/atmel/atmel toolchain/avr8 gcc/native/3.4.2.1002/avr8-gnu-toolchain/bin/../lib/gcc/avr/4.7.2/../../../../avr/lib/avr6\libc.a(strstr_P.o)
 .data          0x0080020f        0x0 c:/program files (x86)/atmel/atmel toolchain/avr8 gcc/native/3.4.2.1002/avr8-gnu-toolchain/bin/../lib/gcc/avr/4.7.2/../../../../avr/lib/avr6\libc.a(memcmp.o)
 .data          0x0080020f        0x0 c:/program files (x86)/atmel/atmel toolchain/avr8 gcc/native/3.4.2.1002/avr8-gnu-toolchain/bin/../lib/gcc/avr/4.7.2/../../../../avr/lib/avr6\libc.a(memcpy.o)
 .data          0x0080020f        0x0 c:/program files (x86)/atmel/atmel toolchain/avr8 gcc/native/3.4.2.1002/avr8-gnu-toolchain/bin/../lib/gcc/avr/4.7.2/../../../../avr/lib/avr6\libc.a(memmove.o)
 .data          0x0080020f        0x0 c:/program files (x86)/atmel/atmel toolchain/avr8 gcc/native/3.4.2.1002/avr8-gnu-toolchain/bin/../lib/gcc/avr/4.7.2/../../../../avr/lib/avr6\libc.a(strcat.o)
 .data          0x0080020f        0x0 c:/program files (x86)/atmel/atmel toolchain/avr8 gcc/native/3.4.2.1002/avr8-gnu-toolchain/bin/../lib/gcc/avr/4.7.2/../../../../avr/lib/avr6\libc.a(strchr.o)
 .data          0x0080020f        0x0 c:/program files (x86)/atmel/atmel toolchain/avr8 gcc/native/3.4.2.1002/avr8-gnu-toolchain/bin/../lib/gcc/avr/4.7.2/../../../../avr/lib/avr6\libc.a(strcmp.o)
 .data          0x0080020f        0x0 c:/program files (x86)/atmel/atmel toolchain/avr8 gcc/native/3.4.2.1002/avr8-gnu-toolchain/bin/../lib/gcc/avr/4.7.2/../../../../avr/lib/avr6\libc.a(strcpy.o)
 .data          0x0080020f        0x0 c:/program files (x86)/atmel/atmel toolchain/avr8 gcc/native/3.4.2.1002/avr8-gnu-toolchain/bin/../lib/gcc/avr/4.7.2/../../../../avr/lib/avr6\libc.a(strncmp.o)
 .data          0x0080020f        0x0 c:/program files (x86)/atmel/atmel toolchain/avr8 gcc/native/3.4.2.1002/avr8-gnu-toolchain/bin/../lib/gcc/avr/4.7.2/../../../../avr/lib/avr6\libc.a(strncpy.o)
 .data          0x0080020f        0x0 c:/program files (x86)/atmel/atmel toolchain/avr8 gcc/native/3.4.2.1002/avr8-gnu-toolchain/bin/../lib/gcc/avr/4.7.2/../../../../avr/lib/avr6\libc.a(strrchr.o)
 .data          0x0080020f        0x0 c:/program files (x86)/atmel/atmel toolchain/avr8 gcc/native/3.4.2.1002/avr8-gnu-toolchain/bin/../lib/gcc/avr/4.7.2/../../../../avr/lib/avr6\libc.a(strstr.o)
 .data          0x0080020f        0x0 c:/program files (x86)/atmel/atmel toolchain/avr8 gcc/native/3.4.2.1002/avr8-gnu-toolchain/bin/../lib/gcc/avr/4.7.2/../../../../avr/lib/avr6\libc.a(itoa.o)
 .data          0x0080020f        0x0 c:/program files (x86)/atmel/atmel toolchain/avr8 gcc/native/3.4.2.1002/avr8-gnu-toolchain/bin/../lib/gcc/avr/4.7.2/../../../../avr/lib/avr6\libc.a(ltoa.o)
 .data          0x0080020f        0x0 c:/program files (x86)/atmel/atmel toolchain/avr8 gcc/native/3.4.2.1002/avr8-gnu-toolchain/bin/../lib/gcc/avr/4.7.2/../../../../avr/lib/avr6\libc.a(mulsi10.o)
 .data          0x0080020f        0x0 c:/program files (x86)/atmel/atmel toolchain/avr8 gcc/native/3.4.2.1002/avr8-gnu-toolchain/bin/../lib/gcc/avr/4.7.2/../../../../avr/lib/avr6\libc.a(ultoa.o)
 .data          0x0080020f        0x0 c:/program files (x86)/atmel/atmel toolchain/avr8 gcc/native/3.4.2.1002/avr8-gnu-toolchain/bin/../lib/gcc/avr/4.7.2/../../../../avr/lib/avr6\libc.a(utoa.o)
 .data          0x0080020f        0x0 c:/program files (x86)/atmel/atmel toolchain/avr8 gcc/native/3.4.2.1002/avr8-gnu-toolchain/bin/../lib/gcc/avr/4.7.2/../../../../avr/lib/avr6\libc.a(sprintf_p.o)
 .data          0x0080020f        0x0 c:/program files (x86)/atmel/atmel toolchain/avr8 gcc/native/3.4.2.1002/avr8-gnu-toolchain/bin/../lib/gcc/avr/4.7.2/../../../../avr/lib/avr6\libc.a(vfprintf_std.o)
 .data          0x0080020f        0x0 c:/program files (x86)/atmel/atmel toolchain/avr8 gcc/native/3.4.2.1002/avr8-gnu-toolchain/bin/../lib/gcc/avr/4.7.2/../../../../avr/lib/avr6\libc.a(eerd_byte_atmega2560.o)
 .data          0x0080020f        0x0 c:/program files (x86)/atmel/atmel toolchain/avr8 gcc/native/3.4.2.1002/avr8-gnu-toolchain/bin/../lib/gcc/avr/4.7.2/../../../../avr/lib/avr6\libc.a(eewr_byte_atmega2560.o)
 .data          0x0080020f        0x0 c:/program files (x86)/atmel/atmel toolchain/avr8 gcc/native/3.4.2.1002/avr8-gnu-toolchain/bin/../lib/gcc/avr/4.7.2/../../../../avr/lib/avr6\libc.a(errno.o)
 .data          0x0080020f        0x0 c:/program files (x86)/atmel/atmel toolchain/avr8 gcc/native/3.4.2.1002/avr8-gnu-toolchain/bin/../lib/gcc/avr/4.7.2/../../../../avr/lib/avr6\libc.a(cty_isfalse.o)
 .data          0x0080020f        0x0 c:/program files (x86)/atmel/atmel toolchain/avr8 gcc/native/3.4.2.1002/avr8-gnu-toolchain/bin/../lib/gcc/avr/4.7.2/../../../../avr/lib/avr6\libc.a(strnlen_P.o)
 .data          0x0080020f        0x0 c:/program files (x86)/atmel/atmel toolchain/avr8 gcc/native/3.4.2.1002/avr8-gnu-toolchain/bin/../lib/gcc/avr/4.7.2/../../../../avr/lib/avr6\libc.a(strnlen.o)
 .data          0x0080020f        0x0 c:/program files (x86)/atmel/atmel toolchain/avr8 gcc/native/3.4.2.1002/avr8-gnu-toolchain/bin/../lib/gcc/avr/4.7.2/../../../../avr/lib/avr6\libc.a(strrev.o)
 .data          0x0080020f        0x0 c:/program files (x86)/atmel/atmel toolchain/avr8 gcc/native/3.4.2.1002/avr8-gnu-toolchain/bin/../lib/gcc/avr/4.7.2/../../../../avr/lib/avr6\libc.a(fputc.o)
 .data          0x0080020f        0x0 c:/program files (x86)/atmel/atmel toolchain/avr8 gcc/native/3.4.2.1002/avr8-gnu-toolchain/bin/../lib/gcc/avr/4.7.2/../../../../avr/lib/avr6\libc.a(ultoa_invert.o)
 *(.data*)
 .data.CooldownNoWait
                0x0080020f        0x1 Marlin_main.o
                0x0080020f                CooldownNoWait
 .data.powersupply
                0x00800210        0x1 Marlin_main.o
                0x00800210                powersupply
 .data.max_pos  0x00800211        0xc Marlin_main.o
                0x00800211                max_pos
 .data.extrudemultiply
                0x0080021d        0x2 Marlin_main.o
                0x0080021d                extrudemultiply
 .data.feedmultiply
                0x0080021f        0x2 Marlin_main.o
                0x0080021f                feedmultiply
 .data.homing_feedrate
                0x00800221       0x10 Marlin_main.o
                0x00800221                homing_feedrate
 .data._ZL8feedrate
                0x00800231        0x4 Marlin_main.o
 .data._ZL13home_all_axis
                0x00800235        0x1 Marlin_main.o
 .data._ZL21stepper_inactive_time
                0x00800236        0x4 Marlin_main.o
 .data.extrude_min_temp
                0x0080023a        0x4 planner.o
                0x0080023a                extrude_min_temp
 .data.autotemp_factor
                0x0080023e        0x4 planner.o
                0x0080023e                autotemp_factor
 .data.autotemp_min
                0x00800242        0x4 planner.o
                0x00800242                autotemp_min
 .data.autotemp_max
                0x00800246        0x4 planner.o
                0x00800246                autotemp_max
 .data.count_direction
                0x0080024a        0x4 stepper.o
                0x0080024a                count_direction
 .data._ZL14check_endstops
                0x0080024e        0x1 stepper.o
 .data.Kc       0x0080024f        0x4 temperature.o
                0x0080024f                Kc
 .data.Kd       0x00800253        0x4 temperature.o
                0x00800253                Kd
 .data.Ki       0x00800257        0x4 temperature.o
                0x00800257                Ki
 .data.Kp       0x0080025b        0x4 temperature.o
                0x0080025b                Kp
 .data._ZL8maxttemp
                0x0080025f        0x2 temperature.o
 .data._ZL12maxttemp_raw
                0x00800261        0x2 temperature.o
 .data._ZZ11__vector_22E9pwm_count
                0x00800263        0x1 temperature.o
 .data.lcdDrawUpdate
                0x00800264        0x1 ultralcd.o
                0x00800264                lcdDrawUpdate
 .data.currentMenu
                0x00800265        0x2 ultralcd.o
                0x00800265                currentMenu
 .data.lcd_status_message
                0x00800267       0x15 ultralcd.o
                0x00800267                lcd_status_message
 .data._ZL9tone_pins
                0x0080027c        0x1 C:\Users\Shady\Documents\Atmel Studio\arduinoCoreMega\libcore.a(Tone.cpp.o)
 *(.rodata)
 .rodata        0x0080027d       0x30 ConfigurationStore.o
 .rodata        0x008002ad       0x40 ultralcd.o
 *(.rodata*)
 .rodata._ZTV3LCD
                0x008002ed       0x10 libs/LCD.o
                0x008002ed                _ZTV3LCD
 .rodata._ZTV17LiquidCrystal_I2C
                0x008002fd       0x10 libs/LiquidCrystal_I2C.o
                0x008002fd                _ZTV17LiquidCrystal_I2C
 .rodata.str1.1
                0x0080030d       0x13 cardreader.o
                                 0x14 (size before relaxing)
 .rodata._ZTV7TwoWire
                0x00800320       0x10 libs/Wire.o
                0x00800320                _ZTV7TwoWire
 .rodata.str1.1
                0x00800330       0xba Marlin_main.o
 .rodata._ZL10axis_codes
                0x008003ea        0x4 Marlin_main.o
 .rodata._ZL14sensitive_pins
                0x008003ee       0x38 Marlin_main.o
 .rodata._ZTV6SdFile
                0x00800426        0x8 SdFile.o
                0x00800426                _ZTV6SdFile
 .rodata.str1.1
                0x0080042e       0x14 stepper.o
 .rodata.str1.1
                0x00800442       0x3d temperature.o
 *(.gnu.linkonce.d*)
                0x00800480                . = ALIGN (0x2)
 *fill*         0x0080047f        0x1 
                0x00800480                _edata = .
                0x00800480                PROVIDE (__data_end, .)

.bss            0x00800480      0xde2
                0x00800480                PROVIDE (__bss_start, .)
 *(.bss)
 *(.bss*)
 .bss.Wire      0x00800480        0xc libs/Wire.o
                0x00800480                Wire
 .bss._ZN7TwoWire12transmittingE
                0x0080048c        0x1 libs/Wire.o
                0x0080048c                _ZN7TwoWire12transmittingE
 .bss._ZN7TwoWire14txBufferLengthE
                0x0080048d        0x1 libs/Wire.o
                0x0080048d                _ZN7TwoWire14txBufferLengthE
 .bss._ZN7TwoWire13txBufferIndexE
                0x0080048e        0x1 libs/Wire.o
                0x0080048e                _ZN7TwoWire13txBufferIndexE
 .bss._ZN7TwoWire8txBufferE
                0x0080048f       0x20 libs/Wire.o
                0x0080048f                _ZN7TwoWire8txBufferE
 .bss._ZN7TwoWire9txAddressE
                0x008004af        0x1 libs/Wire.o
                0x008004af                _ZN7TwoWire9txAddressE
 .bss._ZN7TwoWire14rxBufferLengthE
                0x008004b0        0x1 libs/Wire.o
                0x008004b0                _ZN7TwoWire14rxBufferLengthE
 .bss._ZN7TwoWire13rxBufferIndexE
                0x008004b1        0x1 libs/Wire.o
                0x008004b1                _ZN7TwoWire13rxBufferIndexE
 .bss._ZN7TwoWire8rxBufferE
                0x008004b2       0x20 libs/Wire.o
                0x008004b2                _ZN7TwoWire8rxBufferE
 .bss.MSerial   0x008004d2        0x1 MarlinSerial.o
                0x008004d2                MSerial
 .bss.rx_buffer
                0x008004d3       0x84 MarlinSerial.o
                0x008004d3                rx_buffer
 .bss.target_direction
                0x00800557        0x1 Marlin_main.o
                0x00800557                target_direction
 .bss.Stopped   0x00800558        0x1 Marlin_main.o
                0x00800558                Stopped
 .bss.stoptime  0x00800559        0x4 Marlin_main.o
                0x00800559                stoptime
 .bss.starttime
                0x0080055d        0x4 Marlin_main.o
                0x0080055d                starttime
 .bss.fanSpeed  0x00800561        0x2 Marlin_main.o
                0x00800561                fanSpeed
 .bss.active_extruder
                0x00800563        0x1 Marlin_main.o
                0x00800563                active_extruder
 .bss.min_pos   0x00800564        0xc Marlin_main.o
                0x00800564                min_pos
 .bss.add_homeing
                0x00800570        0xc Marlin_main.o
                0x00800570                add_homeing
 .bss.current_position
                0x0080057c       0x10 Marlin_main.o
                0x0080057c                current_position
 .bss.saved_feedmultiply
                0x0080058c        0x2 Marlin_main.o
                0x0080058c                saved_feedmultiply
 .bss.axis_relative_modes
                0x0080058e        0x4 Marlin_main.o
                0x0080058e                axis_relative_modes
 .bss.card      0x00800592      0x1fb Marlin_main.o
                0x00800592                card
 .bss._ZL6buflen
                0x0080078d        0x2 Marlin_main.o
 .bss._ZL7bufindw
                0x0080078f        0x2 Marlin_main.o
 .bss._ZL9cmdbuffer
                0x00800791      0x180 Marlin_main.o
 .bss._ZL6fromsd
                0x00800911        0x4 Marlin_main.o
 .bss._ZL7bufindr
                0x00800915        0x2 Marlin_main.o
 .bss._ZL11serial_char
                0x00800917        0x1 Marlin_main.o
 .bss._ZL12comment_mode
                0x00800918        0x1 Marlin_main.o
 .bss._ZL12serial_count
                0x00800919        0x2 Marlin_main.o
 .bss._ZL14strchr_pointer
                0x0080091b        0x2 Marlin_main.o
 .bss._ZL7gcode_N
                0x0080091d        0x4 Marlin_main.o
 .bss._ZL11gcode_LastN
                0x00800921        0x4 Marlin_main.o
 .bss._ZL19previous_millis_cmd
                0x00800925        0x4 Marlin_main.o
 .bss._ZL14saved_feedrate
                0x00800929        0x4 Marlin_main.o
 .bss._ZL11destination
                0x0080092d       0x10 Marlin_main.o
 .bss._ZL13relative_mode
                0x0080093d        0x1 Marlin_main.o
 .bss._ZL12tmp_extruder
                0x0080093e        0x1 Marlin_main.o
 .bss._ZL17max_inactive_time
                0x0080093f        0x4 Marlin_main.o
 .bss._ZL19Stopped_gcode_LastN
                0x00800943        0x4 Marlin_main.o
 .bss._ZL13next_feedrate
                0x00800947        0x4 Marlin_main.o
 .bss._ZL6offset
                0x0080094b        0xc Marlin_main.o
 .bss.block_buffer_tail
                0x00800957        0x1 planner.o
                0x00800957                block_buffer_tail
 .bss.block_buffer_head
                0x00800958        0x1 planner.o
                0x00800958                block_buffer_head
 .bss.block_buffer
                0x00800959      0x4d0 planner.o
                0x00800959                block_buffer
 .bss.autotemp_enabled
                0x00800e29        0x1 planner.o
                0x00800e29                autotemp_enabled
 .bss.position  0x00800e2a       0x10 planner.o
                0x00800e2a                position
 .bss.axis_steps_per_sqr_second
                0x00800e3a       0x10 planner.o
                0x00800e3a                axis_steps_per_sqr_second
 .bss.mintravelfeedrate
                0x00800e4a        0x4 planner.o
                0x00800e4a                mintravelfeedrate
 .bss.max_e_jerk
                0x00800e4e        0x4 planner.o
                0x00800e4e                max_e_jerk
 .bss.max_z_jerk
                0x00800e52        0x4 planner.o
                0x00800e52                max_z_jerk
 .bss.max_xy_jerk
                0x00800e56        0x4 planner.o
                0x00800e56                max_xy_jerk
 .bss.retract_acceleration
                0x00800e5a        0x4 planner.o
                0x00800e5a                retract_acceleration
 .bss.acceleration
                0x00800e5e        0x4 planner.o
                0x00800e5e                acceleration
 .bss.minimumfeedrate
                0x00800e62        0x4 planner.o
                0x00800e62                minimumfeedrate
 .bss.max_acceleration_units_per_sq_second
                0x00800e66       0x10 planner.o
                0x00800e66                max_acceleration_units_per_sq_second
 .bss.axis_steps_per_unit
                0x00800e76       0x10 planner.o
                0x00800e76                axis_steps_per_unit
 .bss.max_feedrate
                0x00800e86       0x10 planner.o
                0x00800e86                max_feedrate
 .bss.minsegmenttime
                0x00800e96        0x4 planner.o
                0x00800e96                minsegmenttime
 .bss._ZL14previous_speed
                0x00800e9a       0x10 planner.o
 .bss._ZL22previous_nominal_speed
                0x00800eaa        0x4 planner.o
 .bss._ZZ13getHighESpeedvE4oldt
                0x00800eae        0x4 planner.o
 .bss._ZN10SdBaseFile9dateTime_E
                0x00800eb2        0x2 SdBaseFile.o
                0x00800eb2                _ZN10SdBaseFile9dateTime_E
 .bss._ZN8SdVolume17cacheMirrorBlock_E
                0x00800eb4        0x4 SdVolume.o
                0x00800eb4                _ZN8SdVolume17cacheMirrorBlock_E
 .bss._ZN8SdVolume11cacheDirty_E
                0x00800eb8        0x1 SdVolume.o
                0x00800eb8                _ZN8SdVolume11cacheDirty_E
 .bss._ZN8SdVolume7sdCard_E
                0x00800eb9        0x2 SdVolume.o
                0x00800eb9                _ZN8SdVolume7sdCard_E
 .bss._ZN8SdVolume12cacheBuffer_E
                0x00800ebb      0x200 SdVolume.o
                0x00800ebb                _ZN8SdVolume12cacheBuffer_E
 .bss._ZN8SdVolume17cacheBlockNumber_E
                0x008010bb        0x4 SdVolume.o
                0x008010bb                _ZN8SdVolume17cacheBlockNumber_E
 .bss.count_position
                0x008010bf       0x10 stepper.o
                0x008010bf                count_position
 .bss._ZL13endstop_z_hit
                0x008010cf        0x1 stepper.o
 .bss._ZL13endstop_y_hit
                0x008010d0        0x1 stepper.o
 .bss._ZL13endstop_x_hit
                0x008010d1        0x1 stepper.o
 .bss.endstops_trigsteps
                0x008010d2        0xc stepper.o
                0x008010d2                endstops_trigsteps
 .bss._ZL21step_events_completed
                0x008010de        0x4 stepper.o
 .bss.current_block
                0x008010e2        0x2 stepper.o
                0x008010e2                current_block
 .bss._ZL17deceleration_time
                0x008010e4        0x4 stepper.o
 .bss._ZL10step_loops
                0x008010e8        0x1 stepper.o
 .bss._ZL13OCR1A_nominal
                0x008010e9        0x2 stepper.o
 .bss._ZL18step_loops_nominal
                0x008010eb        0x2 stepper.o
 .bss._ZL13acc_step_rate
                0x008010ed        0x2 stepper.o
 .bss._ZL17acceleration_time
                0x008010ef        0x4 stepper.o
 .bss._ZL9counter_x
                0x008010f3        0x4 stepper.o
 .bss._ZL9counter_y
                0x008010f7        0x4 stepper.o
 .bss._ZL9counter_z
                0x008010fb        0x4 stepper.o
 .bss._ZL9counter_e
                0x008010ff        0x4 stepper.o
 .bss._ZL8out_bits
                0x00801103        0x1 stepper.o
 .bss._ZL17old_x_min_endstop
                0x00801104        0x1 stepper.o
 .bss._ZL17old_x_max_endstop
                0x00801105        0x1 stepper.o
 .bss._ZL17old_y_min_endstop
                0x00801106        0x1 stepper.o
 .bss._ZL17old_y_max_endstop
                0x00801107        0x1 stepper.o
 .bss._ZL17old_z_min_endstop
                0x00801108        0x1 stepper.o
 .bss._ZL17old_z_max_endstop
                0x00801109        0x1 stepper.o
 .bss._ZL15temp_meas_ready
                0x0080110a        0x1 temperature.o
 .bss.current_temperature_bed
                0x0080110b        0x4 temperature.o
                0x0080110b                current_temperature_bed
 .bss.current_temperature_bed_raw
                0x0080110f        0x2 temperature.o
                0x0080110f                current_temperature_bed_raw
 .bss.current_temperature
                0x00801111        0x4 temperature.o
                0x00801111                current_temperature
 .bss.current_temperature_raw
                0x00801115        0x2 temperature.o
                0x00801115                current_temperature_raw
 .bss.target_temperature_bed
                0x00801117        0x2 temperature.o
                0x00801117                target_temperature_bed
 .bss.target_temperature
                0x00801119        0x2 temperature.o
                0x00801119                target_temperature
 .bss._ZL12soft_pwm_bed
                0x0080111b        0x1 temperature.o
 .bss._ZL8soft_pwm
                0x0080111c        0x1 temperature.o
 .bss._ZL15temp_iState_max
                0x0080111d        0x4 temperature.o
 .bss._ZL9pid_error
                0x00801121        0x4 temperature.o
 .bss._ZL9pid_reset
                0x00801125        0x1 temperature.o
 .bss._ZL11temp_iState
                0x00801126        0x4 temperature.o
 .bss._ZL5pTerm
                0x0080112a        0x4 temperature.o
 .bss._ZL15temp_iState_min
                0x0080112e        0x4 temperature.o
 .bss._ZL5iTerm
                0x00801132        0x4 temperature.o
 .bss._ZL11temp_dState
                0x00801136        0x4 temperature.o
 .bss._ZL5dTerm
                0x0080113a        0x4 temperature.o
 .bss._ZL8minttemp
                0x0080113e        0x2 temperature.o
 .bss._ZL26previous_millis_bed_heater
                0x00801140        0x4 temperature.o
 .bss._ZL12minttemp_raw
                0x00801144        0x2 temperature.o
 .bss._ZZ11__vector_22E10soft_pwm_0
                0x00801146        0x1 temperature.o
 .bss._ZZ11__vector_22E10soft_pwm_b
                0x00801147        0x1 temperature.o
 .bss._ZZ11__vector_22E10temp_state
                0x00801148        0x1 temperature.o
 .bss._ZZ11__vector_22E16raw_temp_0_value
                0x00801149        0x4 temperature.o
 .bss._ZZ11__vector_22E18raw_temp_bed_value
                0x0080114d        0x4 temperature.o
 .bss._ZZ11__vector_22E16raw_temp_1_value
                0x00801151        0x4 temperature.o
 .bss._ZZ11__vector_22E10temp_count
                0x00801155        0x1 temperature.o
 .bss._ZZ11__vector_22E16raw_temp_2_value
                0x00801156        0x4 temperature.o
 .bss.twi_error
                0x0080115a        0x1 twi.o
 .bss.twi_rxBufferIndex
                0x0080115b        0x1 twi.o
 .bss.twi_txBufferLength
                0x0080115c        0x1 twi.o
 .bss.twi_txBufferIndex
                0x0080115d        0x1 twi.o
 .bss.twi_masterBufferLength
                0x0080115e        0x1 twi.o
 .bss.twi_masterBufferIndex
                0x0080115f        0x1 twi.o
 .bss.twi_inRepStart
                0x00801160        0x1 twi.o
 .bss.twi_sendStop
                0x00801161        0x1 twi.o
 .bss.twi_slarw
                0x00801162        0x1 twi.o
 .bss.twi_state
                0x00801163        0x1 twi.o
 .bss.twi_masterBuffer
                0x00801164       0x20 twi.o
 .bss.twi_txBuffer
                0x00801184       0x20 twi.o
 .bss.twi_onSlaveReceive
                0x008011a4        0x2 twi.o
 .bss.twi_onSlaveTransmit
                0x008011a6        0x2 twi.o
 .bss.twi_rxBuffer
                0x008011a8       0x20 twi.o
 .bss.conv      0x008011c8        0x8 ultralcd.o
                0x008011c8                conv
 .bss.move_menu_scale
                0x008011d0        0x4 ultralcd.o
                0x008011d0                move_menu_scale
 .bss.raw_Kd    0x008011d4        0x4 ultralcd.o
                0x008011d4                raw_Kd
 .bss.raw_Ki    0x008011d8        0x4 ultralcd.o
                0x008011d8                raw_Ki
 .bss.callbackFunc
                0x008011dc        0x2 ultralcd.o
                0x008011dc                callbackFunc
 .bss.maxEditValue
                0x008011de        0x4 ultralcd.o
                0x008011de                maxEditValue
 .bss.minEditValue
                0x008011e2        0x4 ultralcd.o
                0x008011e2                minEditValue
 .bss.editValue
                0x008011e6        0x2 ultralcd.o
                0x008011e6                editValue
 .bss.editLabel
                0x008011e8        0x2 ultralcd.o
                0x008011e8                editLabel
 .bss.prevEncoderPosition
                0x008011ea        0x2 ultralcd.o
                0x008011ea                prevEncoderPosition
 .bss.prevMenu  0x008011ec        0x2 ultralcd.o
                0x008011ec                prevMenu
 .bss.lcd_status_update_delay
                0x008011ee        0x1 ultralcd.o
                0x008011ee                lcd_status_update_delay
 .bss.lcd_next_update_millis
                0x008011ef        0x4 ultralcd.o
                0x008011ef                lcd_next_update_millis
 .bss.lcd_oldcardstatus
                0x008011f3        0x1 ultralcd.o
                0x008011f3                lcd_oldcardstatus
 .bss.encoderPosition
                0x008011f4        0x4 ultralcd.o
                0x008011f4                encoderPosition
 .bss.lastEncoderBits
                0x008011f8        0x1 ultralcd.o
                0x008011f8                lastEncoderBits
 .bss.blocking_enc
                0x008011f9        0x4 ultralcd.o
                0x008011f9                blocking_enc
 .bss.currentMenuViewOffset
                0x008011fd        0x1 ultralcd.o
                0x008011fd                currentMenuViewOffset
 .bss.buttons   0x008011fe        0x1 ultralcd.o
                0x008011fe                buttons
 .bss.lcd       0x008011ff       0x18 ultralcd.o
                0x008011ff                lcd
 .bss.lcd_status_message_level
                0x00801217        0x1 ultralcd.o
                0x00801217                lcd_status_message_level
 .bss.absPreheatFanSpeed
                0x00801218        0x2 ultralcd.o
                0x00801218                absPreheatFanSpeed
 .bss.absPreheatHPBTemp
                0x0080121a        0x2 ultralcd.o
                0x0080121a                absPreheatHPBTemp
 .bss.absPreheatHotendTemp
                0x0080121c        0x2 ultralcd.o
                0x0080121c                absPreheatHotendTemp
 .bss.plaPreheatFanSpeed
                0x0080121e        0x2 ultralcd.o
                0x0080121e                plaPreheatFanSpeed
 .bss.plaPreheatHPBTemp
                0x00801220        0x2 ultralcd.o
                0x00801220                plaPreheatHPBTemp
 .bss.plaPreheatHotendTemp
                0x00801222        0x2 ultralcd.o
                0x00801222                plaPreheatHotendTemp
 .bss.encoderDiff
                0x00801224        0x1 ultralcd.o
                0x00801224                encoderDiff
 .bss._ZZ10lcd_updatevE15timeoutToStatus
                0x00801225        0x4 ultralcd.o
 .bss.timer0_overflow_count
                0x00801229        0x4 C:\Users\Shady\Documents\Atmel Studio\arduinoCoreMega\libcore.a(wiring.c.o)
                0x00801229                timer0_overflow_count
 .bss.timer0_millis
                0x0080122d        0x4 C:\Users\Shady\Documents\Atmel Studio\arduinoCoreMega\libcore.a(wiring.c.o)
                0x0080122d                timer0_millis
 .bss.timer0_fract
                0x00801231        0x1 C:\Users\Shady\Documents\Atmel Studio\arduinoCoreMega\libcore.a(wiring.c.o)
 .bss.timer0_toggle_count
                0x00801232        0x4 C:\Users\Shady\Documents\Atmel Studio\arduinoCoreMega\libcore.a(Tone.cpp.o)
                0x00801232                timer0_toggle_count
 .bss.timer0_pin_port
                0x00801236        0x2 C:\Users\Shady\Documents\Atmel Studio\arduinoCoreMega\libcore.a(Tone.cpp.o)
                0x00801236                timer0_pin_port
 .bss.timer0_pin_mask
                0x00801238        0x1 C:\Users\Shady\Documents\Atmel Studio\arduinoCoreMega\libcore.a(Tone.cpp.o)
                0x00801238                timer0_pin_mask
 .bss.timer1_toggle_count
                0x00801239        0x4 C:\Users\Shady\Documents\Atmel Studio\arduinoCoreMega\libcore.a(Tone.cpp.o)
                0x00801239                timer1_toggle_count
 .bss.timer1_pin_port
                0x0080123d        0x2 C:\Users\Shady\Documents\Atmel Studio\arduinoCoreMega\libcore.a(Tone.cpp.o)
                0x0080123d                timer1_pin_port
 .bss.timer1_pin_mask
                0x0080123f        0x1 C:\Users\Shady\Documents\Atmel Studio\arduinoCoreMega\libcore.a(Tone.cpp.o)
                0x0080123f                timer1_pin_mask
 .bss.timer2_toggle_count
                0x00801240        0x4 C:\Users\Shady\Documents\Atmel Studio\arduinoCoreMega\libcore.a(Tone.cpp.o)
                0x00801240                timer2_toggle_count
 .bss.timer2_pin_port
                0x00801244        0x2 C:\Users\Shady\Documents\Atmel Studio\arduinoCoreMega\libcore.a(Tone.cpp.o)
                0x00801244                timer2_pin_port
 .bss.timer2_pin_mask
                0x00801246        0x1 C:\Users\Shady\Documents\Atmel Studio\arduinoCoreMega\libcore.a(Tone.cpp.o)
                0x00801246                timer2_pin_mask
 .bss.timer3_toggle_count
                0x00801247        0x4 C:\Users\Shady\Documents\Atmel Studio\arduinoCoreMega\libcore.a(Tone.cpp.o)
                0x00801247                timer3_toggle_count
 .bss.timer3_pin_port
                0x0080124b        0x2 C:\Users\Shady\Documents\Atmel Studio\arduinoCoreMega\libcore.a(Tone.cpp.o)
                0x0080124b                timer3_pin_port
 .bss.timer3_pin_mask
                0x0080124d        0x1 C:\Users\Shady\Documents\Atmel Studio\arduinoCoreMega\libcore.a(Tone.cpp.o)
                0x0080124d                timer3_pin_mask
 .bss.timer4_toggle_count
                0x0080124e        0x4 C:\Users\Shady\Documents\Atmel Studio\arduinoCoreMega\libcore.a(Tone.cpp.o)
                0x0080124e                timer4_toggle_count
 .bss.timer4_pin_port
                0x00801252        0x2 C:\Users\Shady\Documents\Atmel Studio\arduinoCoreMega\libcore.a(Tone.cpp.o)
                0x00801252                timer4_pin_port
 .bss.timer4_pin_mask
                0x00801254        0x1 C:\Users\Shady\Documents\Atmel Studio\arduinoCoreMega\libcore.a(Tone.cpp.o)
                0x00801254                timer4_pin_mask
 .bss.timer5_toggle_count
                0x00801255        0x4 C:\Users\Shady\Documents\Atmel Studio\arduinoCoreMega\libcore.a(Tone.cpp.o)
                0x00801255                timer5_toggle_count
 .bss.timer5_pin_port
                0x00801259        0x2 C:\Users\Shady\Documents\Atmel Studio\arduinoCoreMega\libcore.a(Tone.cpp.o)
                0x00801259                timer5_pin_port
 .bss.timer5_pin_mask
                0x0080125b        0x1 C:\Users\Shady\Documents\Atmel Studio\arduinoCoreMega\libcore.a(Tone.cpp.o)
                0x0080125b                timer5_pin_mask
 *(COMMON)
 COMMON         0x0080125c        0x4 C:\Users\Shady\Documents\Atmel Studio\arduinoCoreMega\libcore.a(malloc.c.o)
                0x0080125c                __brkval
                0x0080125e                __flp
 COMMON         0x00801260        0x2 c:/program files (x86)/atmel/atmel toolchain/avr8 gcc/native/3.4.2.1002/avr8-gnu-toolchain/bin/../lib/gcc/avr/4.7.2/../../../../avr/lib/avr6\libc.a(errno.o)
                0x00801260                errno
                0x00801262                PROVIDE (__bss_end, .)
                0x00018e54                __data_load_start = LOADADDR (.data)
                0x000190d4                __data_load_end = (__data_load_start + SIZEOF (.data))

.noinit         0x00801262        0x0
                0x00801262                PROVIDE (__noinit_start, .)
 *(.noinit*)
                0x00801262                PROVIDE (__noinit_end, .)
                0x00801262                _end = .
                0x00801262                PROVIDE (__heap_start, .)

.eeprom         0x00810000        0x0
 *(.eeprom*)
                0x00810000                __eeprom_end = .

.fuse
 *(.fuse)
 *(.lfuse)
 *(.hfuse)
 *(.efuse)

.lock
 *(.lock*)

.signature
 *(.signature*)

.user_signatures
 *(.user_signatures*)

.stab           0x00000000     0x5e08
 *(.stab)
 .stab          0x00000000      0x6e4 c:/program files (x86)/atmel/atmel toolchain/avr8 gcc/native/3.4.2.1002/avr8-gnu-toolchain/bin/../lib/gcc/avr/4.7.2/../../../../avr/lib/avr6/crtm2560.o
 .stab          0x000006e4       0x78 c:/program files (x86)/atmel/atmel toolchain/avr8 gcc/native/3.4.2.1002/avr8-gnu-toolchain/bin/../lib/gcc/avr/4.7.2/../../../../avr/lib/avr6\libm.a(addsf3.o)
                                 0x84 (size before relaxing)
 .stab          0x0000075c      0x4bc c:/program files (x86)/atmel/atmel toolchain/avr8 gcc/native/3.4.2.1002/avr8-gnu-toolchain/bin/../lib/gcc/avr/4.7.2/../../../../avr/lib/avr6\libm.a(addsf3x.o)
                                0x4c8 (size before relaxing)
 .stab          0x00000c18      0x2f4 c:/program files (x86)/atmel/atmel toolchain/avr8 gcc/native/3.4.2.1002/avr8-gnu-toolchain/bin/../lib/gcc/avr/4.7.2/../../../../avr/lib/avr6\libm.a(atan2.o)
                                0x300 (size before relaxing)
 .stab          0x00000f0c      0x210 c:/program files (x86)/atmel/atmel toolchain/avr8 gcc/native/3.4.2.1002/avr8-gnu-toolchain/bin/../lib/gcc/avr/4.7.2/../../../../avr/lib/avr6\libm.a(atan.o)
                                0x21c (size before relaxing)
 .stab          0x0000111c      0x114 c:/program files (x86)/atmel/atmel toolchain/avr8 gcc/native/3.4.2.1002/avr8-gnu-toolchain/bin/../lib/gcc/avr/4.7.2/../../../../avr/lib/avr6\libm.a(ceil.o)
                                0x120 (size before relaxing)
 .stab          0x00001230       0x90 c:/program files (x86)/atmel/atmel toolchain/avr8 gcc/native/3.4.2.1002/avr8-gnu-toolchain/bin/../lib/gcc/avr/4.7.2/../../../../avr/lib/avr6\libm.a(cmpsf2.o)
                                 0x9c (size before relaxing)
 .stab          0x000012c0       0x54 c:/program files (x86)/atmel/atmel toolchain/avr8 gcc/native/3.4.2.1002/avr8-gnu-toolchain/bin/../lib/gcc/avr/4.7.2/../../../../avr/lib/avr6\libm.a(cos.o)
                                 0x60 (size before relaxing)
 .stab          0x00001314       0x48 c:/program files (x86)/atmel/atmel toolchain/avr8 gcc/native/3.4.2.1002/avr8-gnu-toolchain/bin/../lib/gcc/avr/4.7.2/../../../../avr/lib/avr6\libm.a(divsf3.o)
                                 0x54 (size before relaxing)
 .stab          0x0000135c      0x510 c:/program files (x86)/atmel/atmel toolchain/avr8 gcc/native/3.4.2.1002/avr8-gnu-toolchain/bin/../lib/gcc/avr/4.7.2/../../../../avr/lib/avr6\libm.a(divsf3x.o)
                                0x51c (size before relaxing)
 .stab          0x0000186c       0x6c c:/program files (x86)/atmel/atmel toolchain/avr8 gcc/native/3.4.2.1002/avr8-gnu-toolchain/bin/../lib/gcc/avr/4.7.2/../../../../avr/lib/avr6\libm.a(fixsfsi.o)
                                 0x78 (size before relaxing)
 .stab          0x000018d8      0x240 c:/program files (x86)/atmel/atmel toolchain/avr8 gcc/native/3.4.2.1002/avr8-gnu-toolchain/bin/../lib/gcc/avr/4.7.2/../../../../avr/lib/avr6\libm.a(fixunssfsi.o)
                                0x24c (size before relaxing)
 .stab          0x00001b18      0x318 c:/program files (x86)/atmel/atmel toolchain/avr8 gcc/native/3.4.2.1002/avr8-gnu-toolchain/bin/../lib/gcc/avr/4.7.2/../../../../avr/lib/avr6\libm.a(floatsisf.o)
                                0x324 (size before relaxing)
 .stab          0x00001e30      0x114 c:/program files (x86)/atmel/atmel toolchain/avr8 gcc/native/3.4.2.1002/avr8-gnu-toolchain/bin/../lib/gcc/avr/4.7.2/../../../../avr/lib/avr6\libm.a(floor.o)
                                0x120 (size before relaxing)
 .stab          0x00001f44      0x1e0 c:/program files (x86)/atmel/atmel toolchain/avr8 gcc/native/3.4.2.1002/avr8-gnu-toolchain/bin/../lib/gcc/avr/4.7.2/../../../../avr/lib/avr6\libm.a(fp_cmp.o)
                                0x1ec (size before relaxing)
 .stab          0x00002124       0x78 c:/program files (x86)/atmel/atmel toolchain/avr8 gcc/native/3.4.2.1002/avr8-gnu-toolchain/bin/../lib/gcc/avr/4.7.2/../../../../avr/lib/avr6\libm.a(fp_inf.o)
                                 0x84 (size before relaxing)
 .stab          0x0000219c      0x174 c:/program files (x86)/atmel/atmel toolchain/avr8 gcc/native/3.4.2.1002/avr8-gnu-toolchain/bin/../lib/gcc/avr/4.7.2/../../../../avr/lib/avr6\libm.a(fp_mintl.o)
                                0x180 (size before relaxing)
 .stab          0x00002310       0xe4 c:/program files (x86)/atmel/atmel toolchain/avr8 gcc/native/3.4.2.1002/avr8-gnu-toolchain/bin/../lib/gcc/avr/4.7.2/../../../../avr/lib/avr6\libm.a(fp_mpack.o)
                                 0xf0 (size before relaxing)
 .stab          0x000023f4       0x54 c:/program files (x86)/atmel/atmel toolchain/avr8 gcc/native/3.4.2.1002/avr8-gnu-toolchain/bin/../lib/gcc/avr/4.7.2/../../../../avr/lib/avr6\libm.a(fp_nan.o)
                                 0x60 (size before relaxing)
 .stab          0x00002448      0x1ec c:/program files (x86)/atmel/atmel toolchain/avr8 gcc/native/3.4.2.1002/avr8-gnu-toolchain/bin/../lib/gcc/avr/4.7.2/../../../../avr/lib/avr6\libm.a(fp_powser.o)
                                0x1f8 (size before relaxing)
 .stab          0x00002634       0x84 c:/program files (x86)/atmel/atmel toolchain/avr8 gcc/native/3.4.2.1002/avr8-gnu-toolchain/bin/../lib/gcc/avr/4.7.2/../../../../avr/lib/avr6\libm.a(fp_pscA.o)
                                 0x90 (size before relaxing)
 .stab          0x000026b8       0x84 c:/program files (x86)/atmel/atmel toolchain/avr8 gcc/native/3.4.2.1002/avr8-gnu-toolchain/bin/../lib/gcc/avr/4.7.2/../../../../avr/lib/avr6\libm.a(fp_pscB.o)
                                 0x90 (size before relaxing)
 .stab          0x0000273c      0x21c c:/program files (x86)/atmel/atmel toolchain/avr8 gcc/native/3.4.2.1002/avr8-gnu-toolchain/bin/../lib/gcc/avr/4.7.2/../../../../avr/lib/avr6\libm.a(fp_rempio2.o)
                                0x228 (size before relaxing)
 .stab          0x00002958       0xfc c:/program files (x86)/atmel/atmel toolchain/avr8 gcc/native/3.4.2.1002/avr8-gnu-toolchain/bin/../lib/gcc/avr/4.7.2/../../../../avr/lib/avr6\libm.a(fp_round.o)
                                0x108 (size before relaxing)
 .stab          0x00002a54       0xfc c:/program files (x86)/atmel/atmel toolchain/avr8 gcc/native/3.4.2.1002/avr8-gnu-toolchain/bin/../lib/gcc/avr/4.7.2/../../../../avr/lib/avr6\libm.a(fp_sinus.o)
                                0x108 (size before relaxing)
 .stab          0x00002b50      0x1d4 c:/program files (x86)/atmel/atmel toolchain/avr8 gcc/native/3.4.2.1002/avr8-gnu-toolchain/bin/../lib/gcc/avr/4.7.2/../../../../avr/lib/avr6\libm.a(fp_split3.o)
                                0x1e0 (size before relaxing)
 .stab          0x00002d24      0x144 c:/program files (x86)/atmel/atmel toolchain/avr8 gcc/native/3.4.2.1002/avr8-gnu-toolchain/bin/../lib/gcc/avr/4.7.2/../../../../avr/lib/avr6\libm.a(fp_trunc.o)
                                0x150 (size before relaxing)
 .stab          0x00002e68       0x90 c:/program files (x86)/atmel/atmel toolchain/avr8 gcc/native/3.4.2.1002/avr8-gnu-toolchain/bin/../lib/gcc/avr/4.7.2/../../../../avr/lib/avr6\libm.a(fp_zero.o)
                                 0x9c (size before relaxing)
 .stab          0x00002ef8       0x6c c:/program files (x86)/atmel/atmel toolchain/avr8 gcc/native/3.4.2.1002/avr8-gnu-toolchain/bin/../lib/gcc/avr/4.7.2/../../../../avr/lib/avr6\libm.a(gesf2.o)
                                 0x78 (size before relaxing)
 .stab          0x00002f64      0x4c8 c:/program files (x86)/atmel/atmel toolchain/avr8 gcc/native/3.4.2.1002/avr8-gnu-toolchain/bin/../lib/gcc/avr/4.7.2/../../../../avr/lib/avr6\libm.a(hypot.o)
                                0x4d4 (size before relaxing)
 .stab          0x0000342c       0x84 c:/program files (x86)/atmel/atmel toolchain/avr8 gcc/native/3.4.2.1002/avr8-gnu-toolchain/bin/../lib/gcc/avr/4.7.2/../../../../avr/lib/avr6\libm.a(inverse.o)
                                 0x90 (size before relaxing)
 .stab          0x000034b0      0x2c4 c:/program files (x86)/atmel/atmel toolchain/avr8 gcc/native/3.4.2.1002/avr8-gnu-toolchain/bin/../lib/gcc/avr/4.7.2/../../../../avr/lib/avr6\libm.a(ldexp.o)
                                0x2d0 (size before relaxing)
 .stab          0x00003774      0x270 c:/program files (x86)/atmel/atmel toolchain/avr8 gcc/native/3.4.2.1002/avr8-gnu-toolchain/bin/../lib/gcc/avr/4.7.2/../../../../avr/lib/avr6\libm.a(lround.o)
                                0x27c (size before relaxing)
 .stab          0x000039e4       0x48 c:/program files (x86)/atmel/atmel toolchain/avr8 gcc/native/3.4.2.1002/avr8-gnu-toolchain/bin/../lib/gcc/avr/4.7.2/../../../../avr/lib/avr6\libm.a(mulsf3.o)
                                 0x54 (size before relaxing)
 .stab          0x00003a2c      0x4d4 c:/program files (x86)/atmel/atmel toolchain/avr8 gcc/native/3.4.2.1002/avr8-gnu-toolchain/bin/../lib/gcc/avr/4.7.2/../../../../avr/lib/avr6\libm.a(mulsf3x.o)
                                0x4e0 (size before relaxing)
 .stab          0x00003f00       0x78 c:/program files (x86)/atmel/atmel toolchain/avr8 gcc/native/3.4.2.1002/avr8-gnu-toolchain/bin/../lib/gcc/avr/4.7.2/../../../../avr/lib/avr6\libm.a(sin.o)
                                 0x84 (size before relaxing)
 .stab          0x00003f78      0x354 c:/program files (x86)/atmel/atmel toolchain/avr8 gcc/native/3.4.2.1002/avr8-gnu-toolchain/bin/../lib/gcc/avr/4.7.2/../../../../avr/lib/avr6\libm.a(sqrt.o)
                                0x360 (size before relaxing)
 .stab          0x000042cc       0x54 c:/program files (x86)/atmel/atmel toolchain/avr8 gcc/native/3.4.2.1002/avr8-gnu-toolchain/bin/../lib/gcc/avr/4.7.2/../../../../avr/lib/avr6\libm.a(square.o)
                                 0x60 (size before relaxing)
 .stab          0x00004320       0x84 c:/program files (x86)/atmel/atmel toolchain/avr8 gcc/native/3.4.2.1002/avr8-gnu-toolchain/bin/../lib/gcc/avr/4.7.2/../../../../avr/lib/avr6\libm.a(fp_norm2.o)
                                 0x90 (size before relaxing)
 .stab          0x000043a4       0xfc c:/program files (x86)/atmel/atmel toolchain/avr8 gcc/native/3.4.2.1002/avr8-gnu-toolchain/bin/../lib/gcc/avr/4.7.2/../../../../avr/lib/avr6\libm.a(fp_powsodd.o)
                                0x108 (size before relaxing)
 .stab          0x000044a0       0x60 c:/program files (x86)/atmel/atmel toolchain/avr8 gcc/native/3.4.2.1002/avr8-gnu-toolchain/bin/../lib/gcc/avr/4.7.2/../../../../avr/lib/avr6\libm.a(unordsf2.o)
                                 0x6c (size before relaxing)
 .stab          0x00004500      0x1e0 c:/program files (x86)/atmel/atmel toolchain/avr8 gcc/native/3.4.2.1002/avr8-gnu-toolchain/bin/../lib/gcc/avr/4.7.2/../../../../avr/lib/avr6\libc.a(atol.o)
                                0x1ec (size before relaxing)
 .stab          0x000046e0       0x9c c:/program files (x86)/atmel/atmel toolchain/avr8 gcc/native/3.4.2.1002/avr8-gnu-toolchain/bin/../lib/gcc/avr/4.7.2/../../../../avr/lib/avr6\libc.a(isspace.o)
                                 0xa8 (size before relaxing)
 .stab          0x0000477c       0x9c c:/program files (x86)/atmel/atmel toolchain/avr8 gcc/native/3.4.2.1002/avr8-gnu-toolchain/bin/../lib/gcc/avr/4.7.2/../../../../avr/lib/avr6\libc.a(tolower.o)
                                 0xa8 (size before relaxing)
 .stab          0x00004818       0x18 c:/program files (x86)/atmel/atmel toolchain/avr8 gcc/native/3.4.2.1002/avr8-gnu-toolchain/bin/../lib/gcc/avr/4.7.2/../../../../avr/lib/avr6\libc.a(toupper.o)
                                 0xa8 (size before relaxing)
 .stab          0x00004830       0x6c c:/program files (x86)/atmel/atmel toolchain/avr8 gcc/native/3.4.2.1002/avr8-gnu-toolchain/bin/../lib/gcc/avr/4.7.2/../../../../avr/lib/avr6\libc.a(strcpy_P.o)
                                 0x78 (size before relaxing)
 .stab          0x0000489c       0x84 c:/program files (x86)/atmel/atmel toolchain/avr8 gcc/native/3.4.2.1002/avr8-gnu-toolchain/bin/../lib/gcc/avr/4.7.2/../../../../avr/lib/avr6\libc.a(strlen_P.o)
                                 0x90 (size before relaxing)
 .stab          0x00004920      0x138 c:/program files (x86)/atmel/atmel toolchain/avr8 gcc/native/3.4.2.1002/avr8-gnu-toolchain/bin/../lib/gcc/avr/4.7.2/../../../../avr/lib/avr6\libc.a(strncasecmp_P.o)
                                0x144 (size before relaxing)
 .stab          0x00004a58       0xcc c:/program files (x86)/atmel/atmel toolchain/avr8 gcc/native/3.4.2.1002/avr8-gnu-toolchain/bin/../lib/gcc/avr/4.7.2/../../../../avr/lib/avr6\libc.a(strncpy_P.o)
                                 0xd8 (size before relaxing)
 .stab          0x00004b24      0x150 c:/program files (x86)/atmel/atmel toolchain/avr8 gcc/native/3.4.2.1002/avr8-gnu-toolchain/bin/../lib/gcc/avr/4.7.2/../../../../avr/lib/avr6\libc.a(strstr_P.o)
                                0x15c (size before relaxing)
 .stab          0x00004c74       0xb4 c:/program files (x86)/atmel/atmel toolchain/avr8 gcc/native/3.4.2.1002/avr8-gnu-toolchain/bin/../lib/gcc/avr/4.7.2/../../../../avr/lib/avr6\libc.a(memcmp.o)
                                 0xc0 (size before relaxing)
 .stab          0x00004d28       0x84 c:/program files (x86)/atmel/atmel toolchain/avr8 gcc/native/3.4.2.1002/avr8-gnu-toolchain/bin/../lib/gcc/avr/4.7.2/../../../../avr/lib/avr6\libc.a(memcpy.o)
                                 0x90 (size before relaxing)
 .stab          0x00004dac       0xe4 c:/program files (x86)/atmel/atmel toolchain/avr8 gcc/native/3.4.2.1002/avr8-gnu-toolchain/bin/../lib/gcc/avr/4.7.2/../../../../avr/lib/avr6\libc.a(memmove.o)
                                 0xf0 (size before relaxing)
 .stab          0x00004e90       0x9c c:/program files (x86)/atmel/atmel toolchain/avr8 gcc/native/3.4.2.1002/avr8-gnu-toolchain/bin/../lib/gcc/avr/4.7.2/../../../../avr/lib/avr6\libc.a(strcat.o)
                                 0xa8 (size before relaxing)
 .stab          0x00004f2c       0x9c c:/program files (x86)/atmel/atmel toolchain/avr8 gcc/native/3.4.2.1002/avr8-gnu-toolchain/bin/../lib/gcc/avr/4.7.2/../../../../avr/lib/avr6\libc.a(strchr.o)
                                 0xa8 (size before relaxing)
 .stab          0x00004fc8       0x84 c:/program files (x86)/atmel/atmel toolchain/avr8 gcc/native/3.4.2.1002/avr8-gnu-toolchain/bin/../lib/gcc/avr/4.7.2/../../../../avr/lib/avr6\libc.a(strcmp.o)
                                 0x90 (size before relaxing)
 .stab          0x0000504c       0x6c c:/program files (x86)/atmel/atmel toolchain/avr8 gcc/native/3.4.2.1002/avr8-gnu-toolchain/bin/../lib/gcc/avr/4.7.2/../../../../avr/lib/avr6\libc.a(strcpy.o)
                                 0x78 (size before relaxing)
 .stab          0x000050b8       0xc0 c:/program files (x86)/atmel/atmel toolchain/avr8 gcc/native/3.4.2.1002/avr8-gnu-toolchain/bin/../lib/gcc/avr/4.7.2/../../../../avr/lib/avr6\libc.a(strncmp.o)
                                 0xcc (size before relaxing)
 .stab          0x00005178       0xcc c:/program files (x86)/atmel/atmel toolchain/avr8 gcc/native/3.4.2.1002/avr8-gnu-toolchain/bin/../lib/gcc/avr/4.7.2/../../../../avr/lib/avr6\libc.a(strncpy.o)
                                 0xd8 (size before relaxing)
 .stab          0x00005244       0x9c c:/program files (x86)/atmel/atmel toolchain/avr8 gcc/native/3.4.2.1002/avr8-gnu-toolchain/bin/../lib/gcc/avr/4.7.2/../../../../avr/lib/avr6\libc.a(strrchr.o)
                                 0xa8 (size before relaxing)
 .stab          0x000052e0      0x150 c:/program files (x86)/atmel/atmel toolchain/avr8 gcc/native/3.4.2.1002/avr8-gnu-toolchain/bin/../lib/gcc/avr/4.7.2/../../../../avr/lib/avr6\libc.a(strstr.o)
                                0x15c (size before relaxing)
 .stab          0x00005430       0x18 c:/program files (x86)/atmel/atmel toolchain/avr8 gcc/native/3.4.2.1002/avr8-gnu-toolchain/bin/../lib/gcc/avr/4.7.2/../../../../avr/lib/avr6\libc.a(itoa.o)
                                0x1bc (size before relaxing)
 .stab          0x00005448       0x18 c:/program files (x86)/atmel/atmel toolchain/avr8 gcc/native/3.4.2.1002/avr8-gnu-toolchain/bin/../lib/gcc/avr/4.7.2/../../../../avr/lib/avr6\libc.a(ltoa.o)
                                0x2a0 (size before relaxing)
 .stab          0x00005460      0x114 c:/program files (x86)/atmel/atmel toolchain/avr8 gcc/native/3.4.2.1002/avr8-gnu-toolchain/bin/../lib/gcc/avr/4.7.2/../../../../avr/lib/avr6\libc.a(mulsi10.o)
                                0x120 (size before relaxing)
 .stab          0x00005574       0x18 c:/program files (x86)/atmel/atmel toolchain/avr8 gcc/native/3.4.2.1002/avr8-gnu-toolchain/bin/../lib/gcc/avr/4.7.2/../../../../avr/lib/avr6\libc.a(ultoa.o)
                                0x1ec (size before relaxing)
 .stab          0x0000558c       0x18 c:/program files (x86)/atmel/atmel toolchain/avr8 gcc/native/3.4.2.1002/avr8-gnu-toolchain/bin/../lib/gcc/avr/4.7.2/../../../../avr/lib/avr6\libc.a(utoa.o)
                                0x138 (size before relaxing)
 .stab          0x000055a4       0x90 c:/program files (x86)/atmel/atmel toolchain/avr8 gcc/native/3.4.2.1002/avr8-gnu-toolchain/bin/../lib/gcc/avr/4.7.2/../../../../avr/lib/avr6\libc.a(eerd_byte_atmega2560.o)
                                 0x9c (size before relaxing)
 .stab          0x00005634       0xe4 c:/program files (x86)/atmel/atmel toolchain/avr8 gcc/native/3.4.2.1002/avr8-gnu-toolchain/bin/../lib/gcc/avr/4.7.2/../../../../avr/lib/avr6\libc.a(eewr_byte_atmega2560.o)
                                 0xf0 (size before relaxing)
 .stab          0x00005718       0x60 c:/program files (x86)/atmel/atmel toolchain/avr8 gcc/native/3.4.2.1002/avr8-gnu-toolchain/bin/../lib/gcc/avr/4.7.2/../../../../avr/lib/avr6\libc.a(cty_isfalse.o)
                                 0x6c (size before relaxing)
 .stab          0x00005778       0x9c c:/program files (x86)/atmel/atmel toolchain/avr8 gcc/native/3.4.2.1002/avr8-gnu-toolchain/bin/../lib/gcc/avr/4.7.2/../../../../avr/lib/avr6\libc.a(strnlen_P.o)
                                 0xa8 (size before relaxing)
 .stab          0x00005814       0x9c c:/program files (x86)/atmel/atmel toolchain/avr8 gcc/native/3.4.2.1002/avr8-gnu-toolchain/bin/../lib/gcc/avr/4.7.2/../../../../avr/lib/avr6\libc.a(strnlen.o)
                                 0xa8 (size before relaxing)
 .stab          0x000058b0       0xd8 c:/program files (x86)/atmel/atmel toolchain/avr8 gcc/native/3.4.2.1002/avr8-gnu-toolchain/bin/../lib/gcc/avr/4.7.2/../../../../avr/lib/avr6\libc.a(strrev.o)
                                 0xe4 (size before relaxing)
 .stab          0x00005988      0x480 c:/program files (x86)/atmel/atmel toolchain/avr8 gcc/native/3.4.2.1002/avr8-gnu-toolchain/bin/../lib/gcc/avr/4.7.2/../../../../avr/lib/avr6\libc.a(ultoa_invert.o)
                                0x48c (size before relaxing)

.stabstr        0x00000000     0x206a
 *(.stabstr)
 .stabstr       0x00000000     0x206a c:/program files (x86)/atmel/atmel toolchain/avr8 gcc/native/3.4.2.1002/avr8-gnu-toolchain/bin/../lib/gcc/avr/4.7.2/../../../../avr/lib/avr6/crtm2560.o

.stab.excl
 *(.stab.excl)

.stab.exclstr
 *(.stab.exclstr)

.stab.index
 *(.stab.index)

.stab.indexstr
 *(.stab.indexstr)

.comment        0x00000000       0x2f
 *(.comment)
 .comment       0x00000000       0x2f libs/I2CIO.o
                                 0x30 (size before relaxing)
 .comment       0x00000000       0x30 libs/LCD.o
 .comment       0x00000000       0x30 libs/LiquidCrystal_I2C.o
 .comment       0x00000000       0x30 libs/LiquidTWI2.o
 .comment       0x00000000       0x30 cardreader.o
 .comment       0x00000000       0x30 ConfigurationStore.o
 .comment       0x00000000       0x30 libs/Wire.o
 .comment       0x00000000       0x30 LiquidCrystalRus.o
 .comment       0x00000000       0x30 Marlin.o
 .comment       0x00000000       0x30 MarlinSerial.o
 .comment       0x00000000       0x30 Marlin_main.o
 .comment       0x00000000       0x30 motion_control.o
 .comment       0x00000000       0x30 planner.o
 .comment       0x00000000       0x30 Sd2Card.o
 .comment       0x00000000       0x30 SdBaseFile.o
 .comment       0x00000000       0x30 SdFatUtil.o
 .comment       0x00000000       0x30 SdFile.o
 .comment       0x00000000       0x30 SdVolume.o
 .comment       0x00000000       0x30 Servo.o
 .comment       0x00000000       0x30 stepper.o
 .comment       0x00000000       0x30 temperature.o
 .comment       0x00000000       0x30 twi.o
 .comment       0x00000000       0x30 ultralcd.o
 .comment       0x00000000       0x30 watchdog.o
 .comment       0x00000000       0x30 c:/program files (x86)/atmel/atmel toolchain/avr8 gcc/native/3.4.2.1002/avr8-gnu-toolchain/bin/../lib/gcc/avr/4.7.2/../../../../avr/lib/avr6\libc.a(strtod.o)
 .comment       0x00000000       0x30 c:/program files (x86)/atmel/atmel toolchain/avr8 gcc/native/3.4.2.1002/avr8-gnu-toolchain/bin/../lib/gcc/avr/4.7.2/../../../../avr/lib/avr6\libc.a(strtol.o)
 .comment       0x00000000       0x30 c:/program files (x86)/atmel/atmel toolchain/avr8 gcc/native/3.4.2.1002/avr8-gnu-toolchain/bin/../lib/gcc/avr/4.7.2/../../../../avr/lib/avr6\libc.a(sprintf_p.o)
 .comment       0x00000000       0x30 c:/program files (x86)/atmel/atmel toolchain/avr8 gcc/native/3.4.2.1002/avr8-gnu-toolchain/bin/../lib/gcc/avr/4.7.2/../../../../avr/lib/avr6\libc.a(vfprintf_std.o)
 .comment       0x00000000       0x30 c:/program files (x86)/atmel/atmel toolchain/avr8 gcc/native/3.4.2.1002/avr8-gnu-toolchain/bin/../lib/gcc/avr/4.7.2/../../../../avr/lib/avr6\libc.a(errno.o)
 .comment       0x00000000       0x30 c:/program files (x86)/atmel/atmel toolchain/avr8 gcc/native/3.4.2.1002/avr8-gnu-toolchain/bin/../lib/gcc/avr/4.7.2/../../../../avr/lib/avr6\libc.a(fputc.o)

.debug
 *(.debug)

.line
 *(.line)

.debug_srcinfo
 *(.debug_srcinfo)

.debug_sfnames
 *(.debug_sfnames)

.debug_aranges  0x00000000     0x1620
 *(.debug_aranges)
 .debug_aranges
                0x00000000       0x58 libs/I2CIO.o
 .debug_aranges
                0x00000058       0xf8 libs/LCD.o
 .debug_aranges
                0x00000150       0x88 libs/LiquidCrystal_I2C.o
 .debug_aranges
                0x000001d8       0xf8 libs/LiquidTWI2.o
 .debug_aranges
                0x000002d0       0xc0 cardreader.o
 .debug_aranges
                0x00000390       0x30 ConfigurationStore.o
 .debug_aranges
                0x000003c0       0xd0 libs/Wire.o
 .debug_aranges
                0x00000490      0x100 LiquidCrystalRus.o
 .debug_aranges
                0x00000590       0x18 Marlin.o
 .debug_aranges
                0x000005a8       0xe8 MarlinSerial.o
 .debug_aranges
                0x00000690      0x128 Marlin_main.o
 .debug_aranges
                0x000007b8       0x20 motion_control.o
 .debug_aranges
                0x000007d8       0xa0 planner.o
 .debug_aranges
                0x00000878       0xd0 Sd2Card.o
 .debug_aranges
                0x00000948      0x198 SdBaseFile.o
 .debug_aranges
                0x00000ae0       0x40 SdFatUtil.o
 .debug_aranges
                0x00000b20       0x48 SdFile.o
 .debug_aranges
                0x00000b68       0x60 SdVolume.o
 .debug_aranges
                0x00000bc8       0x18 Servo.o
 .debug_aranges
                0x00000be0       0xb8 stepper.o
 .debug_aranges
                0x00000c98       0xa0 temperature.o
 .debug_aranges
                0x00000d38       0x70 twi.o
 .debug_aranges
                0x00000da8      0x2b0 ultralcd.o
 .debug_aranges
                0x00001058       0x18 watchdog.o
 .debug_aranges
                0x00001070       0x28 C:\Users\Shady\Documents\Atmel Studio\arduinoCoreMega\libcore.a(malloc.c.o)
 .debug_aranges
                0x00001098       0x48 C:\Users\Shady\Documents\Atmel Studio\arduinoCoreMega\libcore.a(wiring.c.o)
 .debug_aranges
                0x000010e0       0x30 C:\Users\Shady\Documents\Atmel Studio\arduinoCoreMega\libcore.a(wiring_analog.c.o)
 .debug_aranges
                0x00001110       0x38 C:\Users\Shady\Documents\Atmel Studio\arduinoCoreMega\libcore.a(wiring_digital.c.o)
 .debug_aranges
                0x00001148       0x20 C:\Users\Shady\Documents\Atmel Studio\arduinoCoreMega\libcore.a(main.cpp.o)
 .debug_aranges
                0x00001168       0x58 C:\Users\Shady\Documents\Atmel Studio\arduinoCoreMega\libcore.a(new.cpp.o)
 .debug_aranges
                0x000011c0       0xf0 C:\Users\Shady\Documents\Atmel Studio\arduinoCoreMega\libcore.a(Print.cpp.o)
 .debug_aranges
                0x000012b0       0x38 C:\Users\Shady\Documents\Atmel Studio\arduinoCoreMega\libcore.a(Tone.cpp.o)
 .debug_aranges
                0x000012e8      0x260 C:\Users\Shady\Documents\Atmel Studio\arduinoCoreMega\libcore.a(WString.cpp.o)
 .debug_aranges
                0x00001548       0x20 C:\Users\Shady\Documents\Atmel Studio\arduinoCoreMega\libcore.a(realloc.c.o)
 .debug_aranges
                0x00001568       0x20 c:/program files (x86)/atmel/atmel toolchain/avr8 gcc/native/3.4.2.1002/avr8-gnu-toolchain/bin/../lib/gcc/avr/4.7.2/../../../../avr/lib/avr6\libc.a(strtod.o)
 .debug_aranges
                0x00001588       0x20 c:/program files (x86)/atmel/atmel toolchain/avr8 gcc/native/3.4.2.1002/avr8-gnu-toolchain/bin/../lib/gcc/avr/4.7.2/../../../../avr/lib/avr6\libc.a(strtol.o)
 .debug_aranges
                0x000015a8       0x20 c:/program files (x86)/atmel/atmel toolchain/avr8 gcc/native/3.4.2.1002/avr8-gnu-toolchain/bin/../lib/gcc/avr/4.7.2/../../../../avr/lib/avr6\libc.a(sprintf_p.o)
 .debug_aranges
                0x000015c8       0x20 c:/program files (x86)/atmel/atmel toolchain/avr8 gcc/native/3.4.2.1002/avr8-gnu-toolchain/bin/../lib/gcc/avr/4.7.2/../../../../avr/lib/avr6\libc.a(vfprintf_std.o)
 .debug_aranges
                0x000015e8       0x18 c:/program files (x86)/atmel/atmel toolchain/avr8 gcc/native/3.4.2.1002/avr8-gnu-toolchain/bin/../lib/gcc/avr/4.7.2/../../../../avr/lib/avr6\libc.a(errno.o)
 .debug_aranges
                0x00001600       0x20 c:/program files (x86)/atmel/atmel toolchain/avr8 gcc/native/3.4.2.1002/avr8-gnu-toolchain/bin/../lib/gcc/avr/4.7.2/../../../../avr/lib/avr6\libc.a(fputc.o)

.debug_pubnames
                0x00000000      0xcbe
 *(.debug_pubnames)
 .debug_pubnames
                0x00000000       0x7f C:\Users\Shady\Documents\Atmel Studio\arduinoCoreMega\libcore.a(malloc.c.o)
 .debug_pubnames
                0x0000007f       0x8d C:\Users\Shady\Documents\Atmel Studio\arduinoCoreMega\libcore.a(wiring.c.o)
 .debug_pubnames
                0x0000010c       0x5a C:\Users\Shady\Documents\Atmel Studio\arduinoCoreMega\libcore.a(wiring_analog.c.o)
 .debug_pubnames
                0x00000166       0xda C:\Users\Shady\Documents\Atmel Studio\arduinoCoreMega\libcore.a(wiring_digital.c.o)
 .debug_pubnames
                0x00000240       0x1b C:\Users\Shady\Documents\Atmel Studio\arduinoCoreMega\libcore.a(main.cpp.o)
 .debug_pubnames
                0x0000025b       0xbf C:\Users\Shady\Documents\Atmel Studio\arduinoCoreMega\libcore.a(new.cpp.o)
 .debug_pubnames
                0x0000031a      0x200 C:\Users\Shady\Documents\Atmel Studio\arduinoCoreMega\libcore.a(Print.cpp.o)
 .debug_pubnames
                0x0000051a      0x1c7 C:\Users\Shady\Documents\Atmel Studio\arduinoCoreMega\libcore.a(Tone.cpp.o)
 .debug_pubnames
                0x000006e1      0x5bf C:\Users\Shady\Documents\Atmel Studio\arduinoCoreMega\libcore.a(WString.cpp.o)
 .debug_pubnames
                0x00000ca0       0x1e C:\Users\Shady\Documents\Atmel Studio\arduinoCoreMega\libcore.a(realloc.c.o)

.debug_info     0x00000000    0x53f95
 *(.debug_info)
 .debug_info    0x00000000      0x6da libs/I2CIO.o
 .debug_info    0x000006da     0x1169 libs/LCD.o
 .debug_info    0x00001843     0x1232 libs/LiquidCrystal_I2C.o
 .debug_info    0x00002a75     0x2002 libs/LiquidTWI2.o
 .debug_info    0x00004a77     0x7e0f cardreader.o
 .debug_info    0x0000c886     0x19b3 ConfigurationStore.o
 .debug_info    0x0000e239     0x1e13 libs/Wire.o
 .debug_info    0x0001004c     0x1f01 LiquidCrystalRus.o
 .debug_info    0x00011f4d     0x1260 Marlin.o
 .debug_info    0x000131ad     0x20cc MarlinSerial.o
 .debug_info    0x00015279     0xbee8 Marlin_main.o
 .debug_info    0x00021161     0x1878 motion_control.o
 .debug_info    0x000229d9     0x273c planner.o
 .debug_info    0x00025115     0x3978 Sd2Card.o
 .debug_info    0x00028a8d     0x78f6 SdBaseFile.o
 .debug_info    0x00030383     0x14c9 SdFatUtil.o
 .debug_info    0x0003184c     0x4378 SdFile.o
 .debug_info    0x00035bc4     0x37e4 SdVolume.o
 .debug_info    0x000393a8     0x1259 Servo.o
 .debug_info    0x0003a601     0x3508 stepper.o
 .debug_info    0x0003db09     0x3023 temperature.o
 .debug_info    0x00040b2c      0x58f twi.o
 .debug_info    0x000410bb     0xb522 ultralcd.o
 .debug_info    0x0004c5dd     0x1259 watchdog.o
 .debug_info    0x0004d836      0x229 C:\Users\Shady\Documents\Atmel Studio\arduinoCoreMega\libcore.a(malloc.c.o)
 .debug_info    0x0004da5f      0x37a C:\Users\Shady\Documents\Atmel Studio\arduinoCoreMega\libcore.a(wiring.c.o)
 .debug_info    0x0004ddd9      0x289 C:\Users\Shady\Documents\Atmel Studio\arduinoCoreMega\libcore.a(wiring_analog.c.o)
 .debug_info    0x0004e062      0x5d3 C:\Users\Shady\Documents\Atmel Studio\arduinoCoreMega\libcore.a(wiring_digital.c.o)
 .debug_info    0x0004e635      0x1a9 C:\Users\Shady\Documents\Atmel Studio\arduinoCoreMega\libcore.a(main.cpp.o)
 .debug_info    0x0004e7de      0x195 C:\Users\Shady\Documents\Atmel Studio\arduinoCoreMega\libcore.a(new.cpp.o)
 .debug_info    0x0004e973     0x1b4b C:\Users\Shady\Documents\Atmel Studio\arduinoCoreMega\libcore.a(Print.cpp.o)
 .debug_info    0x000504be      0x973 C:\Users\Shady\Documents\Atmel Studio\arduinoCoreMega\libcore.a(Tone.cpp.o)
 .debug_info    0x00050e31     0x21e1 C:\Users\Shady\Documents\Atmel Studio\arduinoCoreMega\libcore.a(WString.cpp.o)
 .debug_info    0x00053012      0x194 C:\Users\Shady\Documents\Atmel Studio\arduinoCoreMega\libcore.a(realloc.c.o)
 .debug_info    0x000531a6      0x3ce c:/program files (x86)/atmel/atmel toolchain/avr8 gcc/native/3.4.2.1002/avr8-gnu-toolchain/bin/../lib/gcc/avr/4.7.2/../../../../avr/lib/avr6\libc.a(strtod.o)
 .debug_info    0x00053574      0x12d c:/program files (x86)/atmel/atmel toolchain/avr8 gcc/native/3.4.2.1002/avr8-gnu-toolchain/bin/../lib/gcc/avr/4.7.2/../../../../avr/lib/avr6\libc.a(strtol.o)
 .debug_info    0x000536a1      0x204 c:/program files (x86)/atmel/atmel toolchain/avr8 gcc/native/3.4.2.1002/avr8-gnu-toolchain/bin/../lib/gcc/avr/4.7.2/../../../../avr/lib/avr6\libc.a(sprintf_p.o)
 .debug_info    0x000538a5      0x549 c:/program files (x86)/atmel/atmel toolchain/avr8 gcc/native/3.4.2.1002/avr8-gnu-toolchain/bin/../lib/gcc/avr/4.7.2/../../../../avr/lib/avr6\libc.a(vfprintf_std.o)
 .debug_info    0x00053dee       0x33 c:/program files (x86)/atmel/atmel toolchain/avr8 gcc/native/3.4.2.1002/avr8-gnu-toolchain/bin/../lib/gcc/avr/4.7.2/../../../../avr/lib/avr6\libc.a(errno.o)
 .debug_info    0x00053e21      0x174 c:/program files (x86)/atmel/atmel toolchain/avr8 gcc/native/3.4.2.1002/avr8-gnu-toolchain/bin/../lib/gcc/avr/4.7.2/../../../../avr/lib/avr6\libc.a(fputc.o)
 *(.gnu.linkonce.wi.*)

.debug_abbrev   0x00000000     0x8cfc
 *(.debug_abbrev)
 .debug_abbrev  0x00000000      0x222 libs/I2CIO.o
 .debug_abbrev  0x00000222      0x376 libs/LCD.o
 .debug_abbrev  0x00000598      0x389 libs/LiquidCrystal_I2C.o
 .debug_abbrev  0x00000921      0x3f2 libs/LiquidTWI2.o
 .debug_abbrev  0x00000d13      0x978 cardreader.o
 .debug_abbrev  0x0000168b      0x393 ConfigurationStore.o
 .debug_abbrev  0x00001a1e      0x4b9 libs/Wire.o
 .debug_abbrev  0x00001ed7      0x3b2 LiquidCrystalRus.o
 .debug_abbrev  0x00002289      0x1f7 Marlin.o
 .debug_abbrev  0x00002480      0x456 MarlinSerial.o
 .debug_abbrev  0x000028d6      0xa60 Marlin_main.o
 .debug_abbrev  0x00003336      0x317 motion_control.o
 .debug_abbrev  0x0000364d      0x588 planner.o
 .debug_abbrev  0x00003bd5      0x55f Sd2Card.o
 .debug_abbrev  0x00004134      0x918 SdBaseFile.o
 .debug_abbrev  0x00004a4c      0x33f SdFatUtil.o
 .debug_abbrev  0x00004d8b      0x696 SdFile.o
 .debug_abbrev  0x00005421      0x5af SdVolume.o
 .debug_abbrev  0x000059d0      0x1f7 Servo.o
 .debug_abbrev  0x00005bc7      0x5d8 stepper.o
 .debug_abbrev  0x0000619f      0x58d temperature.o
 .debug_abbrev  0x0000672c      0x251 twi.o
 .debug_abbrev  0x0000697d      0xb56 ultralcd.o
 .debug_abbrev  0x000074d3      0x1f7 watchdog.o
 .debug_abbrev  0x000076ca      0x10d C:\Users\Shady\Documents\Atmel Studio\arduinoCoreMega\libcore.a(malloc.c.o)
 .debug_abbrev  0x000077d7      0x17d C:\Users\Shady\Documents\Atmel Studio\arduinoCoreMega\libcore.a(wiring.c.o)
 .debug_abbrev  0x00007954      0x117 C:\Users\Shady\Documents\Atmel Studio\arduinoCoreMega\libcore.a(wiring_analog.c.o)
 .debug_abbrev  0x00007a6b      0x167 C:\Users\Shady\Documents\Atmel Studio\arduinoCoreMega\libcore.a(wiring_digital.c.o)
 .debug_abbrev  0x00007bd2       0x7a C:\Users\Shady\Documents\Atmel Studio\arduinoCoreMega\libcore.a(main.cpp.o)
 .debug_abbrev  0x00007c4c       0xf7 C:\Users\Shady\Documents\Atmel Studio\arduinoCoreMega\libcore.a(new.cpp.o)
 .debug_abbrev  0x00007d43      0x336 C:\Users\Shady\Documents\Atmel Studio\arduinoCoreMega\libcore.a(Print.cpp.o)
 .debug_abbrev  0x00008079      0x1e3 C:\Users\Shady\Documents\Atmel Studio\arduinoCoreMega\libcore.a(Tone.cpp.o)
 .debug_abbrev  0x0000825c      0x343 C:\Users\Shady\Documents\Atmel Studio\arduinoCoreMega\libcore.a(WString.cpp.o)
 .debug_abbrev  0x0000859f       0xc9 C:\Users\Shady\Documents\Atmel Studio\arduinoCoreMega\libcore.a(realloc.c.o)
 .debug_abbrev  0x00008668      0x1c0 c:/program files (x86)/atmel/atmel toolchain/avr8 gcc/native/3.4.2.1002/avr8-gnu-toolchain/bin/../lib/gcc/avr/4.7.2/../../../../avr/lib/avr6\libc.a(strtod.o)
 .debug_abbrev  0x00008828       0xb9 c:/program files (x86)/atmel/atmel toolchain/avr8 gcc/native/3.4.2.1002/avr8-gnu-toolchain/bin/../lib/gcc/avr/4.7.2/../../../../avr/lib/avr6\libc.a(strtol.o)
 .debug_abbrev  0x000088e1      0x12a c:/program files (x86)/atmel/atmel toolchain/avr8 gcc/native/3.4.2.1002/avr8-gnu-toolchain/bin/../lib/gcc/avr/4.7.2/../../../../avr/lib/avr6\libc.a(sprintf_p.o)
 .debug_abbrev  0x00008a0b      0x1d6 c:/program files (x86)/atmel/atmel toolchain/avr8 gcc/native/3.4.2.1002/avr8-gnu-toolchain/bin/../lib/gcc/avr/4.7.2/../../../../avr/lib/avr6\libc.a(vfprintf_std.o)
 .debug_abbrev  0x00008be1       0x2a c:/program files (x86)/atmel/atmel toolchain/avr8 gcc/native/3.4.2.1002/avr8-gnu-toolchain/bin/../lib/gcc/avr/4.7.2/../../../../avr/lib/avr6\libc.a(errno.o)
 .debug_abbrev  0x00008c0b       0xf1 c:/program files (x86)/atmel/atmel toolchain/avr8 gcc/native/3.4.2.1002/avr8-gnu-toolchain/bin/../lib/gcc/avr/4.7.2/../../../../avr/lib/avr6\libc.a(fputc.o)

.debug_line     0x00000000    0x17c6a
 *(.debug_line)
 .debug_line    0x00000000      0x3e0 libs/I2CIO.o
 .debug_line    0x000003e0      0x6a3 libs/LCD.o
 .debug_line    0x00000a83      0x543 libs/LiquidCrystal_I2C.o
 .debug_line    0x00000fc6      0xc0d libs/LiquidTWI2.o
 .debug_line    0x00001bd3     0x19e8 cardreader.o
 .debug_line    0x000035bb      0x4f3 ConfigurationStore.o
 .debug_line    0x00003aae      0x5c2 libs/Wire.o
 .debug_line    0x00004070      0x945 LiquidCrystalRus.o
 .debug_line    0x000049b5      0x25a Marlin.o
 .debug_line    0x00004c0f      0x780 MarlinSerial.o
 .debug_line    0x0000538f     0x378d Marlin_main.o
 .debug_line    0x00008b1c      0x3d5 motion_control.o
 .debug_line    0x00008ef1      0xca2 planner.o
 .debug_line    0x00009b93      0xb5e Sd2Card.o
 .debug_line    0x0000a6f1     0x1ef4 SdBaseFile.o
 .debug_line    0x0000c5e5      0x32a SdFatUtil.o
 .debug_line    0x0000c90f      0x3af SdFile.o
 .debug_line    0x0000ccbe      0x84b SdVolume.o
 .debug_line    0x0000d509      0x25a Servo.o
 .debug_line    0x0000d763     0x117a stepper.o
 .debug_line    0x0000e8dd     0x10cb temperature.o
 .debug_line    0x0000f9a8      0x531 twi.o
 .debug_line    0x0000fed9     0x3e17 ultralcd.o
 .debug_line    0x00013cf0      0x25a watchdog.o
 .debug_line    0x00013f4a      0x348 C:\Users\Shady\Documents\Atmel Studio\arduinoCoreMega\libcore.a(malloc.c.o)
 .debug_line    0x00014292      0x3fb C:\Users\Shady\Documents\Atmel Studio\arduinoCoreMega\libcore.a(wiring.c.o)
 .debug_line    0x0001468d      0x345 C:\Users\Shady\Documents\Atmel Studio\arduinoCoreMega\libcore.a(wiring_analog.c.o)
 .debug_line    0x000149d2      0x34b C:\Users\Shady\Documents\Atmel Studio\arduinoCoreMega\libcore.a(wiring_digital.c.o)
 .debug_line    0x00014d1d      0x16d C:\Users\Shady\Documents\Atmel Studio\arduinoCoreMega\libcore.a(main.cpp.o)
 .debug_line    0x00014e8a      0x220 C:\Users\Shady\Documents\Atmel Studio\arduinoCoreMega\libcore.a(new.cpp.o)
 .debug_line    0x000150aa      0x78c C:\Users\Shady\Documents\Atmel Studio\arduinoCoreMega\libcore.a(Print.cpp.o)
 .debug_line    0x00015836      0x597 C:\Users\Shady\Documents\Atmel Studio\arduinoCoreMega\libcore.a(Tone.cpp.o)
 .debug_line    0x00015dcd     0x1152 C:\Users\Shady\Documents\Atmel Studio\arduinoCoreMega\libcore.a(WString.cpp.o)
 .debug_line    0x00016f1f      0x295 C:\Users\Shady\Documents\Atmel Studio\arduinoCoreMega\libcore.a(realloc.c.o)
 .debug_line    0x000171b4      0x2c1 c:/program files (x86)/atmel/atmel toolchain/avr8 gcc/native/3.4.2.1002/avr8-gnu-toolchain/bin/../lib/gcc/avr/4.7.2/../../../../avr/lib/avr6\libc.a(strtod.o)
 .debug_line    0x00017475      0x181 c:/program files (x86)/atmel/atmel toolchain/avr8 gcc/native/3.4.2.1002/avr8-gnu-toolchain/bin/../lib/gcc/avr/4.7.2/../../../../avr/lib/avr6\libc.a(strtol.o)
 .debug_line    0x000175f6      0x196 c:/program files (x86)/atmel/atmel toolchain/avr8 gcc/native/3.4.2.1002/avr8-gnu-toolchain/bin/../lib/gcc/avr/4.7.2/../../../../avr/lib/avr6\libc.a(sprintf_p.o)
 .debug_line    0x0001778c      0x35a c:/program files (x86)/atmel/atmel toolchain/avr8 gcc/native/3.4.2.1002/avr8-gnu-toolchain/bin/../lib/gcc/avr/4.7.2/../../../../avr/lib/avr6\libc.a(vfprintf_std.o)
 .debug_line    0x00017ae6       0x80 c:/program files (x86)/atmel/atmel toolchain/avr8 gcc/native/3.4.2.1002/avr8-gnu-toolchain/bin/../lib/gcc/avr/4.7.2/../../../../avr/lib/avr6\libc.a(errno.o)
 .debug_line    0x00017b66      0x104 c:/program files (x86)/atmel/atmel toolchain/avr8 gcc/native/3.4.2.1002/avr8-gnu-toolchain/bin/../lib/gcc/avr/4.7.2/../../../../avr/lib/avr6\libc.a(fputc.o)

.debug_frame    0x00000000     0x4f14
 *(.debug_frame)
 .debug_frame   0x00000000       0xc8 libs/I2CIO.o
 .debug_frame   0x000000c8      0x228 libs/LCD.o
 .debug_frame   0x000002f0      0x2c8 libs/LiquidCrystal_I2C.o
 .debug_frame   0x000005b8      0x2e8 libs/LiquidTWI2.o
 .debug_frame   0x000008a0      0x44c cardreader.o
 .debug_frame   0x00000cec       0xb4 ConfigurationStore.o
 .debug_frame   0x00000da0      0x1d0 libs/Wire.o
 .debug_frame   0x00000f70      0x3b4 LiquidCrystalRus.o
 .debug_frame   0x00001324      0x33c MarlinSerial.o
 .debug_frame   0x00001660      0x504 Marlin_main.o
 .debug_frame   0x00001b64       0x84 motion_control.o
 .debug_frame   0x00001be8      0x3a4 planner.o
 .debug_frame   0x00001f8c      0x374 Sd2Card.o
 .debug_frame   0x00002300      0xa10 SdBaseFile.o
 .debug_frame   0x00002d10       0x80 SdFatUtil.o
 .debug_frame   0x00002d90       0xb0 SdFile.o
 .debug_frame   0x00002e40      0x2e0 SdVolume.o
 .debug_frame   0x00003120      0x228 stepper.o
 .debug_frame   0x00003348      0x26c temperature.o
 .debug_frame   0x000035b4      0x114 twi.o
 .debug_frame   0x000036c8      0xdcc ultralcd.o
 .debug_frame   0x00004494       0x30 C:\Users\Shady\Documents\Atmel Studio\arduinoCoreMega\libcore.a(malloc.c.o)
 .debug_frame   0x000044c4       0x70 C:\Users\Shady\Documents\Atmel Studio\arduinoCoreMega\libcore.a(wiring.c.o)
 .debug_frame   0x00004534       0x40 C:\Users\Shady\Documents\Atmel Studio\arduinoCoreMega\libcore.a(wiring_analog.c.o)
 .debug_frame   0x00004574       0x50 C:\Users\Shady\Documents\Atmel Studio\arduinoCoreMega\libcore.a(wiring_digital.c.o)
 .debug_frame   0x000045c4       0x20 C:\Users\Shady\Documents\Atmel Studio\arduinoCoreMega\libcore.a(main.cpp.o)
 .debug_frame   0x000045e4       0x90 C:\Users\Shady\Documents\Atmel Studio\arduinoCoreMega\libcore.a(new.cpp.o)
 .debug_frame   0x00004674      0x1c0 C:\Users\Shady\Documents\Atmel Studio\arduinoCoreMega\libcore.a(Print.cpp.o)
 .debug_frame   0x00004834       0x50 C:\Users\Shady\Documents\Atmel Studio\arduinoCoreMega\libcore.a(Tone.cpp.o)
 .debug_frame   0x00004884      0x4a0 C:\Users\Shady\Documents\Atmel Studio\arduinoCoreMega\libcore.a(WString.cpp.o)
 .debug_frame   0x00004d24       0x20 C:\Users\Shady\Documents\Atmel Studio\arduinoCoreMega\libcore.a(realloc.c.o)
 .debug_frame   0x00004d44       0x60 c:/program files (x86)/atmel/atmel toolchain/avr8 gcc/native/3.4.2.1002/avr8-gnu-toolchain/bin/../lib/gcc/avr/4.7.2/../../../../avr/lib/avr6\libc.a(strtod.o)
 .debug_frame   0x00004da4       0x74 c:/program files (x86)/atmel/atmel toolchain/avr8 gcc/native/3.4.2.1002/avr8-gnu-toolchain/bin/../lib/gcc/avr/4.7.2/../../../../avr/lib/avr6\libc.a(strtol.o)
 .debug_frame   0x00004e18       0x40 c:/program files (x86)/atmel/atmel toolchain/avr8 gcc/native/3.4.2.1002/avr8-gnu-toolchain/bin/../lib/gcc/avr/4.7.2/../../../../avr/lib/avr6\libc.a(sprintf_p.o)
 .debug_frame   0x00004e58       0x84 c:/program files (x86)/atmel/atmel toolchain/avr8 gcc/native/3.4.2.1002/avr8-gnu-toolchain/bin/../lib/gcc/avr/4.7.2/../../../../avr/lib/avr6\libc.a(vfprintf_std.o)
 .debug_frame   0x00004edc       0x38 c:/program files (x86)/atmel/atmel toolchain/avr8 gcc/native/3.4.2.1002/avr8-gnu-toolchain/bin/../lib/gcc/avr/4.7.2/../../../../avr/lib/avr6\libc.a(fputc.o)

.debug_str      0x00000000     0x908b
 *(.debug_str)
 .debug_str     0x00000000      0x2e2 libs/I2CIO.o
                                0x340 (size before relaxing)
 .debug_str     0x000002e2      0x44f libs/LCD.o
                                0x59b (size before relaxing)
 .debug_str     0x00000731      0x2f0 libs/LiquidCrystal_I2C.o
                                0x595 (size before relaxing)
 .debug_str     0x00000a21      0x514 libs/LiquidTWI2.o
                                0x832 (size before relaxing)
 .debug_str     0x00000f35     0x3817 cardreader.o
                               0x3b11 (size before relaxing)
 .debug_str     0x0000474c      0x27b ConfigurationStore.o
                               0x11c2 (size before relaxing)
 .debug_str     0x000049c7      0x6a7 libs/Wire.o
                               0x10c9 (size before relaxing)
 .debug_str     0x0000506e      0x4bd LiquidCrystalRus.o
                                0x785 (size before relaxing)
 .debug_str     0x0000552b       0x10 Marlin.o
                                0xd21 (size before relaxing)
 .debug_str     0x0000553b       0x8c MarlinSerial.o
                                0xdb2 (size before relaxing)
 .debug_str     0x000055c7      0xc67 Marlin_main.o
                               0x4859 (size before relaxing)
 .debug_str     0x0000622e      0x125 motion_control.o
                               0x10be (size before relaxing)
 .debug_str     0x00006353      0x49c planner.o
                               0x1750 (size before relaxing)
 .debug_str     0x000067ef       0xaf Sd2Card.o
                               0x1956 (size before relaxing)
 .debug_str     0x0000689e      0x22d SdBaseFile.o
                               0x3497 (size before relaxing)
 .debug_str     0x00006acb      0x118 SdFatUtil.o
                                0xe62 (size before relaxing)
 .debug_str     0x00006be3       0x8d SdFile.o
                               0x326f (size before relaxing)
 .debug_str     0x00006c70       0xf5 SdVolume.o
                               0x2559 (size before relaxing)
 .debug_str     0x00006d65        0xf Servo.o
                                0xd1a (size before relaxing)
 .debug_str     0x00006d74      0x3ae stepper.o
                               0x1dcc (size before relaxing)
 .debug_str     0x00007122      0x2cc temperature.o
                               0x1428 (size before relaxing)
 .debug_str     0x000073ee      0x135 twi.o
                                0x2ae (size before relaxing)
 .debug_str     0x00007523      0xcb5 ultralcd.o
                               0x4b71 (size before relaxing)
 .debug_str     0x000081d8       0x12 watchdog.o
                                0xd1d (size before relaxing)
 .debug_str     0x000081ea       0xde C:\Users\Shady\Documents\Atmel Studio\arduinoCoreMega\libcore.a(malloc.c.o)
                                0x15f (size before relaxing)
 .debug_str     0x000082c8       0x8c C:\Users\Shady\Documents\Atmel Studio\arduinoCoreMega\libcore.a(wiring.c.o)
                                0x15c (size before relaxing)
 .debug_str     0x00008354       0x93 C:\Users\Shady\Documents\Atmel Studio\arduinoCoreMega\libcore.a(wiring_analog.c.o)
                                0x15a (size before relaxing)
 .debug_str     0x000083e7       0xc4 C:\Users\Shady\Documents\Atmel Studio\arduinoCoreMega\libcore.a(wiring_digital.c.o)
                                0x1c7 (size before relaxing)
 .debug_str     0x000084ab       0x5a C:\Users\Shady\Documents\Atmel Studio\arduinoCoreMega\libcore.a(main.cpp.o)
                                 0xef (size before relaxing)
 .debug_str     0x00008505       0xf5 C:\Users\Shady\Documents\Atmel Studio\arduinoCoreMega\libcore.a(new.cpp.o)
                                0x133 (size before relaxing)
 .debug_str     0x000085fa      0x337 C:\Users\Shady\Documents\Atmel Studio\arduinoCoreMega\libcore.a(Print.cpp.o)
                                0xc13 (size before relaxing)
 .debug_str     0x00008931      0x1ec C:\Users\Shady\Documents\Atmel Studio\arduinoCoreMega\libcore.a(Tone.cpp.o)
                                0x345 (size before relaxing)
 .debug_str     0x00008b1d      0x1a0 C:\Users\Shady\Documents\Atmel Studio\arduinoCoreMega\libcore.a(WString.cpp.o)
                                0x9af (size before relaxing)
 .debug_str     0x00008cbd       0x68 C:\Users\Shady\Documents\Atmel Studio\arduinoCoreMega\libcore.a(realloc.c.o)
                                0x123 (size before relaxing)
 .debug_str     0x00008d25       0xd6 c:/program files (x86)/atmel/atmel toolchain/avr8 gcc/native/3.4.2.1002/avr8-gnu-toolchain/bin/../lib/gcc/avr/4.7.2/../../../../avr/lib/avr6\libc.a(strtod.o)
                                0x19b (size before relaxing)
 .debug_str     0x00008dfb       0x6b c:/program files (x86)/atmel/atmel toolchain/avr8 gcc/native/3.4.2.1002/avr8-gnu-toolchain/bin/../lib/gcc/avr/4.7.2/../../../../avr/lib/avr6\libc.a(strtol.o)
                                 0xe9 (size before relaxing)
 .debug_str     0x00008e66       0xa3 c:/program files (x86)/atmel/atmel toolchain/avr8 gcc/native/3.4.2.1002/avr8-gnu-toolchain/bin/../lib/gcc/avr/4.7.2/../../../../avr/lib/avr6\libc.a(sprintf_p.o)
                                0x140 (size before relaxing)
 .debug_str     0x00008f09       0xbd c:/program files (x86)/atmel/atmel toolchain/avr8 gcc/native/3.4.2.1002/avr8-gnu-toolchain/bin/../lib/gcc/avr/4.7.2/../../../../avr/lib/avr6\libc.a(vfprintf_std.o)
                                0x1ad (size before relaxing)
 .debug_str     0x00008fc6       0x63 c:/program files (x86)/atmel/atmel toolchain/avr8 gcc/native/3.4.2.1002/avr8-gnu-toolchain/bin/../lib/gcc/avr/4.7.2/../../../../avr/lib/avr6\libc.a(errno.o)
                                 0x75 (size before relaxing)
 .debug_str     0x00009029       0x62 c:/program files (x86)/atmel/atmel toolchain/avr8 gcc/native/3.4.2.1002/avr8-gnu-toolchain/bin/../lib/gcc/avr/4.7.2/../../../../avr/lib/avr6\libc.a(fputc.o)
                                0x10d (size before relaxing)

.debug_loc      0x00000000    0x22108
 *(.debug_loc)
 .debug_loc     0x00000000      0x4fd libs/I2CIO.o
 .debug_loc     0x000004fd      0x6f4 libs/LCD.o
 .debug_loc     0x00000bf1     0x100a libs/LiquidCrystal_I2C.o
 .debug_loc     0x00001bfb     0x1655 libs/LiquidTWI2.o
 .debug_loc     0x00003250     0x2b9d cardreader.o
 .debug_loc     0x00005ded      0x350 ConfigurationStore.o
 .debug_loc     0x0000613d      0x802 libs/Wire.o
 .debug_loc     0x0000693f     0x1ab1 LiquidCrystalRus.o
 .debug_loc     0x000083f0     0x147d MarlinSerial.o
 .debug_loc     0x0000986d     0x399b Marlin_main.o
 .debug_loc     0x0000d208      0x8d5 motion_control.o
 .debug_loc     0x0000dadd     0x1965 planner.o
 .debug_loc     0x0000f442     0x18fa Sd2Card.o
 .debug_loc     0x00010d3c     0x4e7a SdBaseFile.o
 .debug_loc     0x00015bb6      0x159 SdFatUtil.o
 .debug_loc     0x00015d0f      0x3dc SdFile.o
 .debug_loc     0x000160eb      0xffc SdVolume.o
 .debug_loc     0x000170e7     0x12a6 stepper.o
 .debug_loc     0x0001838d     0x15bc temperature.o
 .debug_loc     0x00019949      0x373 twi.o
 .debug_loc     0x00019cbc     0x36b6 ultralcd.o
 .debug_loc     0x0001d372      0x358 C:\Users\Shady\Documents\Atmel Studio\arduinoCoreMega\libcore.a(malloc.c.o)
 .debug_loc     0x0001d6ca      0x16d C:\Users\Shady\Documents\Atmel Studio\arduinoCoreMega\libcore.a(wiring.c.o)
 .debug_loc     0x0001d837      0x19d C:\Users\Shady\Documents\Atmel Studio\arduinoCoreMega\libcore.a(wiring_analog.c.o)
 .debug_loc     0x0001d9d4      0x25a C:\Users\Shady\Documents\Atmel Studio\arduinoCoreMega\libcore.a(wiring_digital.c.o)
 .debug_loc     0x0001dc2e       0xb0 C:\Users\Shady\Documents\Atmel Studio\arduinoCoreMega\libcore.a(new.cpp.o)
 .debug_loc     0x0001dcde      0xdb8 C:\Users\Shady\Documents\Atmel Studio\arduinoCoreMega\libcore.a(Print.cpp.o)
 .debug_loc     0x0001ea96      0x495 C:\Users\Shady\Documents\Atmel Studio\arduinoCoreMega\libcore.a(Tone.cpp.o)
 .debug_loc     0x0001ef2b     0x1f05 C:\Users\Shady\Documents\Atmel Studio\arduinoCoreMega\libcore.a(WString.cpp.o)
 .debug_loc     0x00020e30      0x2d0 C:\Users\Shady\Documents\Atmel Studio\arduinoCoreMega\libcore.a(realloc.c.o)
 .debug_loc     0x00021100      0x48c c:/program files (x86)/atmel/atmel toolchain/avr8 gcc/native/3.4.2.1002/avr8-gnu-toolchain/bin/../lib/gcc/avr/4.7.2/../../../../avr/lib/avr6\libc.a(strtod.o)
 .debug_loc     0x0002158c      0x405 c:/program files (x86)/atmel/atmel toolchain/avr8 gcc/native/3.4.2.1002/avr8-gnu-toolchain/bin/../lib/gcc/avr/4.7.2/../../../../avr/lib/avr6\libc.a(strtol.o)
 .debug_loc     0x00021991       0x61 c:/program files (x86)/atmel/atmel toolchain/avr8 gcc/native/3.4.2.1002/avr8-gnu-toolchain/bin/../lib/gcc/avr/4.7.2/../../../../avr/lib/avr6\libc.a(sprintf_p.o)
 .debug_loc     0x000219f2      0x623 c:/program files (x86)/atmel/atmel toolchain/avr8 gcc/native/3.4.2.1002/avr8-gnu-toolchain/bin/../lib/gcc/avr/4.7.2/../../../../avr/lib/avr6\libc.a(vfprintf_std.o)
 .debug_loc     0x00022015       0xf3 c:/program files (x86)/atmel/atmel toolchain/avr8 gcc/native/3.4.2.1002/avr8-gnu-toolchain/bin/../lib/gcc/avr/4.7.2/../../../../avr/lib/avr6\libc.a(fputc.o)

.debug_macinfo
 *(.debug_macinfo)

.debug_pubtypes
 *(.debug_pubtypes)

.debug_ranges   0x00000000     0x24f8
 *(.debug_ranges)
 .debug_ranges  0x00000000       0x48 libs/I2CIO.o
 .debug_ranges  0x00000048       0xe8 libs/LCD.o
 .debug_ranges  0x00000130       0x78 libs/LiquidCrystal_I2C.o
 .debug_ranges  0x000001a8       0xe8 libs/LiquidTWI2.o
 .debug_ranges  0x00000290      0x348 cardreader.o
 .debug_ranges  0x000005d8       0x20 ConfigurationStore.o
 .debug_ranges  0x000005f8       0xc0 libs/Wire.o
 .debug_ranges  0x000006b8      0x150 LiquidCrystalRus.o
 .debug_ranges  0x00000808      0x138 MarlinSerial.o
 .debug_ranges  0x00000940      0x748 Marlin_main.o
 .debug_ranges  0x00001088       0x10 motion_control.o
 .debug_ranges  0x00001098      0x108 planner.o
 .debug_ranges  0x000011a0       0xd8 Sd2Card.o
 .debug_ranges  0x00001278      0x3b0 SdBaseFile.o
 .debug_ranges  0x00001628       0x48 SdFatUtil.o
 .debug_ranges  0x00001670       0x50 SdFile.o
 .debug_ranges  0x000016c0       0xe0 SdVolume.o
 .debug_ranges  0x000017a0      0x168 stepper.o
 .debug_ranges  0x00001908      0x1f8 temperature.o
 .debug_ranges  0x00001b00       0x60 twi.o
 .debug_ranges  0x00001b60      0x488 ultralcd.o
 .debug_ranges  0x00001fe8       0x20 C:\Users\Shady\Documents\Atmel Studio\arduinoCoreMega\libcore.a(malloc.c.o)
 .debug_ranges  0x00002008       0x40 C:\Users\Shady\Documents\Atmel Studio\arduinoCoreMega\libcore.a(wiring.c.o)
 .debug_ranges  0x00002048       0x28 C:\Users\Shady\Documents\Atmel Studio\arduinoCoreMega\libcore.a(wiring_analog.c.o)
 .debug_ranges  0x00002070       0x30 C:\Users\Shady\Documents\Atmel Studio\arduinoCoreMega\libcore.a(wiring_digital.c.o)
 .debug_ranges  0x000020a0       0x18 C:\Users\Shady\Documents\Atmel Studio\arduinoCoreMega\libcore.a(main.cpp.o)
 .debug_ranges  0x000020b8       0x50 C:\Users\Shady\Documents\Atmel Studio\arduinoCoreMega\libcore.a(new.cpp.o)
 .debug_ranges  0x00002108       0xe8 C:\Users\Shady\Documents\Atmel Studio\arduinoCoreMega\libcore.a(Print.cpp.o)
 .debug_ranges  0x000021f0       0x30 C:\Users\Shady\Documents\Atmel Studio\arduinoCoreMega\libcore.a(Tone.cpp.o)
 .debug_ranges  0x00002220      0x270 C:\Users\Shady\Documents\Atmel Studio\arduinoCoreMega\libcore.a(WString.cpp.o)
 .debug_ranges  0x00002490       0x18 C:\Users\Shady\Documents\Atmel Studio\arduinoCoreMega\libcore.a(realloc.c.o)
 .debug_ranges  0x000024a8       0x10 c:/program files (x86)/atmel/atmel toolchain/avr8 gcc/native/3.4.2.1002/avr8-gnu-toolchain/bin/../lib/gcc/avr/4.7.2/../../../../avr/lib/avr6\libc.a(strtod.o)
 .debug_ranges  0x000024b8       0x10 c:/program files (x86)/atmel/atmel toolchain/avr8 gcc/native/3.4.2.1002/avr8-gnu-toolchain/bin/../lib/gcc/avr/4.7.2/../../../../avr/lib/avr6\libc.a(strtol.o)
 .debug_ranges  0x000024c8       0x10 c:/program files (x86)/atmel/atmel toolchain/avr8 gcc/native/3.4.2.1002/avr8-gnu-toolchain/bin/../lib/gcc/avr/4.7.2/../../../../avr/lib/avr6\libc.a(sprintf_p.o)
 .debug_ranges  0x000024d8       0x10 c:/program files (x86)/atmel/atmel toolchain/avr8 gcc/native/3.4.2.1002/avr8-gnu-toolchain/bin/../lib/gcc/avr/4.7.2/../../../../avr/lib/avr6\libc.a(vfprintf_std.o)
 .debug_ranges  0x000024e8       0x10 c:/program files (x86)/atmel/atmel toolchain/avr8 gcc/native/3.4.2.1002/avr8-gnu-toolchain/bin/../lib/gcc/avr/4.7.2/../../../../avr/lib/avr6\libc.a(fputc.o)

.debug_macro
 *(.debug_macro)
OUTPUT(Marlin.elf elf32-avr)
LOAD linker stubs
